(dp0
S'generation'
p1
I7
sS'logbook'
p2
ccopy_reg
_reconstructor
p3
(cdeap.tools.support
Logbook
p4
c__builtin__
list
p5
(lp6
(dp7
S'std'
p8
cnumpy.core.multiarray
_reconstruct
p9
(cnumpy
ndarray
p10
(I0
tp11
S'b'
p12
tp13
Rp14
(I1
(I2
tp15
cnumpy
dtype
p16
(S'f8'
p17
I0
I1
tp18
Rp19
(I3
S'<'
p20
NNNI-1
I-1
I0
tp21
bI00
S'\xa3\x96n\xf7\xd9\x04\xaf?W\x9e\x1c\xc04\x17\x85?'
p22
tp23
bsS'evals'
p24
I16
sS'min'
p25
g9
(g10
(I0
tp26
g12
tp27
Rp28
(I1
(I2
tp29
g19
I00
S'\xc6\x0e=\x7f*\xa6\xa4?#q\xc6v\xab\x81P?'
p30
tp31
bsS'max'
p32
g9
(g10
(I0
tp33
g12
tp34
Rp35
(I1
(I2
tp36
g19
I00
S'\xc1U\x82\xa9\xaa\xe4\xd1?v\xdcgU\xf6\x19\xa9?'
p37
tp38
bsS'avg'
p39
g9
(g10
(I0
tp40
g12
tp41
Rp42
(I1
(I2
tp43
g19
I00
S'\x7f\xd8\x14X\x99\xe0\xc9?$\x16\xbe\xf9\xa6\xe9\x83?'
p44
tp45
bsS'gen'
p46
I0
sa(dp47
g8
g9
(g10
(I0
tp48
g12
tp49
Rp50
(I1
(I2
tp51
g19
I00
S'\xefw\x0c\xb2\xc9P\xb2?/\xd5\x8f\xdc\x07\xa3\x82?'
p52
tp53
bsg24
I20
sg25
g9
(g10
(I0
tp54
g12
tp55
Rp56
(I1
(I2
tp57
g19
I00
S'\xc6\x0e=\x7f*\xa6\xa4?\x0fX\xf9\xbd\xc4\xbaI?'
p58
tp59
bsg32
g9
(g10
(I0
tp60
g12
tp61
Rp62
(I1
(I2
tp63
g19
I00
S'\xf5q\xeb\xee\xa6E\xd3?v\xdcgU\xf6\x19\xa9?'
p64
tp65
bsg39
g9
(g10
(I0
tp66
g12
tp67
Rp68
(I1
(I2
tp69
g19
I00
S'1\x8b\xf1\x92\x1d\xcd\xc9?\xaeV\xb1Y\xe5\x04\x81?'
p70
tp71
bsg46
I1
sa(dp72
g8
g9
(g10
(I0
tp73
g12
tp74
Rp75
(I1
(I2
tp76
g19
I00
S'\xe8\xd9\xfb\xe6\xae\x19\xb3?]\x02\xf2\x8d\x07\xbc\x80?'
p77
tp78
bsg24
I20
sg25
g9
(g10
(I0
tp79
g12
tp80
Rp81
(I1
(I2
tp82
g19
I00
S'\xc6\x0e=\x7f*\xa6\xa4?\x92\tlJ\xc7\xfeG?'
p83
tp84
bsg32
g9
(g10
(I0
tp85
g12
tp86
Rp87
(I1
(I2
tp88
g19
I00
S'^?\xbc\x16h\x1b\xd4?v\xdcgU\xf6\x19\xa9?'
p89
tp90
bsg39
g9
(g10
(I0
tp91
g12
tp92
Rp93
(I1
(I2
tp94
g19
I00
S'\x7fN\xa7\x8bH\xe6\xc9?\xe0\xeeA\xa9\xc5A\x80?'
p95
tp96
bsg46
I2
sa(dp97
g8
g9
(g10
(I0
tp98
g12
tp99
Rp100
(I1
(I2
tp101
g19
I00
S'\xc3V\x92*\tD\xb3?\xa2\x95\xa1n\xc8\x8a\x7f?'
p102
tp103
bsg24
I20
sg25
g9
(g10
(I0
tp104
g12
tp105
Rp106
(I1
(I2
tp107
g19
I00
S't-\xf89\x80N\xa0?\xfc\xe6\xcf\xe95\x0eC?'
p108
tp109
bsg32
g9
(g10
(I0
tp110
g12
tp111
Rp112
(I1
(I2
tp113
g19
I00
S'^?\xbc\x16h\x1b\xd4?v\xdcgU\xf6\x19\xa9?'
p114
tp115
bsg39
g9
(g10
(I0
tp116
g12
tp117
Rp118
(I1
(I2
tp119
g19
I00
S'N\xd7:6\xd0\xfe\xc9?eaA%\xce"\x80?'
p120
tp121
bsg46
I3
sa(dp122
g8
g9
(g10
(I0
tp123
g12
tp124
Rp125
(I1
(I2
tp126
g19
I00
S'.\xf8\x02\x9a\x8a\xc9\xb3?WB\x80s\xf5\xb5~?'
p127
tp128
bsg24
I16
sg25
g9
(g10
(I0
tp129
g12
tp130
Rp131
(I1
(I2
tp132
g19
I00
S'\x8b\x835\xdevL\x9f?|\xfc\xac\xf4\xca\xfa%?'
p133
tp134
bsg32
g9
(g10
(I0
tp135
g12
tp136
Rp137
(I1
(I2
tp138
g19
I00
S'^?\xbc\x16h\x1b\xd4?v\xdcgU\xf6\x19\xa9?'
p139
tp140
bsg39
g9
(g10
(I0
tp141
g12
tp142
Rp143
(I1
(I2
tp144
g19
I00
S"'Rk\xc9J&\xca?\xa3\xd1\x8aN\xd2\xd4\x7f?"
p145
tp146
bsg46
I4
sa(dp147
g8
g9
(g10
(I0
tp148
g12
tp149
Rp150
(I1
(I2
tp151
g19
I00
S'\xf6\xed\xee.\xe6j\xb3?\x98;\xff7\xa9G~?'
p152
tp153
bsg24
I20
sg25
g9
(g10
(I0
tp154
g12
tp155
Rp156
(I1
(I2
tp157
g19
I00
S'\x8b\x835\xdevL\x9f?|\xfc\xac\xf4\xca\xfa%?'
p158
tp159
bsg32
g9
(g10
(I0
tp160
g12
tp161
Rp162
(I1
(I2
tp163
g19
I00
S'2RH\xc9\xed\x1c\xd4?v\xdcgU\xf6\x19\xa9?'
p164
tp165
bsg39
g9
(g10
(I0
tp166
g12
tp167
Rp168
(I1
(I2
tp169
g19
I00
S'\x91\x95\x8fHs\xd0\xca?\xcf+RK\xfb\x8e\x80?'
p170
tp171
bsg46
I5
sa(dp172
g8
g9
(g10
(I0
tp173
g12
tp174
Rp175
(I1
(I2
tp176
g19
I00
S'\x91\xba\xb8\xf8F\xb2\xb3?^\xf57\xb82\xc7}?'
p177
tp178
bsg24
I18
sg25
g9
(g10
(I0
tp179
g12
tp180
Rp181
(I1
(I2
tp182
g19
I00
S'\x8b\x835\xdevL\x9f?|\xfc\xac\xf4\xca\xfa%?'
p183
tp184
bsg32
g9
(g10
(I0
tp185
g12
tp186
Rp187
(I1
(I2
tp188
g19
I00
S'2RH\xc9\xed\x1c\xd4?v\xdcgU\xf6\x19\xa9?'
p189
tp190
bsg39
g9
(g10
(I0
tp191
g12
tp192
Rp193
(I1
(I2
tp194
g19
I00
S'\x0f\xdb\xf7\xed,\xbc\xca?\x8d\x8b.\xda\x0f\xcd\x80?'
p195
tp196
bsg46
I6
sa(dp197
g8
g9
(g10
(I0
tp198
g12
tp199
Rp200
(I1
(I2
tp201
g19
I00
S';\xd4\xdc\x1b\x19x\xb3?\x1c\xcaiR\xb2\xf2}?'
p202
tp203
bsg24
I20
sg25
g9
(g10
(I0
tp204
g12
tp205
Rp206
(I1
(I2
tp207
g19
I00
S'\x8b\x835\xdevL\x9f?|\xfc\xac\xf4\xca\xfa%?'
p208
tp209
bsg32
g9
(g10
(I0
tp210
g12
tp211
Rp212
(I1
(I2
tp213
g19
I00
S'2RH\xc9\xed\x1c\xd4?v\xdcgU\xf6\x19\xa9?'
p214
tp215
bsg39
g9
(g10
(I0
tp216
g12
tp217
Rp218
(I1
(I2
tp219
g19
I00
S'\x88\x97\x1a\xd1\xa2\xcf\xca?\xbe\xa3\xa1\xa6I+\x81?'
p220
tp221
bsg46
I7
satp222
Rp223
(dp224
S'log_header'
p225
I01
sS'header'
p226
(S'gen'
p227
S'evals'
p228
S'fitness'
p229
tp230
sS'columns_len'
p231
NsS'buffindex'
p232
I0
sS'chapters'
p233
ccollections
defaultdict
p234
(g4
tp235
Rp236
S'fitness'
p237
g3
(g4
g5
(lp238
tp239
Rp240
(dp241
g225
I01
sg226
(g39
S'max'
p242
S'min'
p243
S'std'
p244
tp245
sg231
Nsg232
I0
sg233
g234
(g4
tp246
Rp247
sbssbsS'rndstate'
p248
(S'MT19937'
p249
g9
(g10
(I0
tp250
g12
tp251
Rp252
(I1
(I624
tp253
g16
(S'u4'
p254
I0
I1
tp255
Rp256
(I3
S'<'
p257
NNNI-1
I-1
I0
tp258
bI00
S'\xb1\xdct\xee\xbd\x07\xd7\xcaz\x1am\xa7\x8c2\x80\xe7\xf4-k\x144?E\xdc\xecd\r+\x9b\x1b\x06\x02\x87~]\x91\x18\xe0\xab\xd1P\x8e\xdbA\xd2\xe6\xb2fD]\x94`\x17\x8d\xa6\x02e\xe5\x03uu\x92\xfe\xad[\x12\xfeg\x0f\xe8\x130]\x98a\xf3D\x0f&\x1e\xab\xaf\x91\xc1\xd0L~\x14~L/\xc2\xd4/Q\x8e\xde\x8a\xc1\x07\x93\x89~\x98Z\xa9\xbe#\xdd\x85tL\x06!8/\xdd\xafW?l\xae\x1b\xd0\x18v\xe2f\x9c G\xf2\xb4\x1f+K\xbe\r\xde\x9f\x19D\xe6\x86\x9d\xcbz\x92\x1aG\xd9|\xfa\xa7\xac&\x91\x0e\xefD`\xff\xb9|G\xb2dZ\xa0}[le\xed\xf6\xb1\xbfI8\x9eO\xa96\xb2o\xe3I\xfe?\x19A\xa8F\xbc\xb3\xad|=\x10\xb9_\x0f\x00\x00j\xea%4\xc8\r\xbc\xa922\xb7\x8e\x83\x84\n\x00\xb5"\x92Y=\xb9Q\xe2\x86m(\x85\xbd\xdb\xa6O\x0c\x0ba\xd0\xe8\xd4\xb0^\x82!\xb2\xbd\xdd\xa81\xff\x00\xc5\xa7\x03\xc7`\xa8K>w\x93\x1eF@\xd1\xb3M\xcd\xf9\xc4rp\xdd\xa8\x94\xd0\x1e\xf7\x15\x1c\x82.:\x1a\x06\x93\x97\x16\x80\x83f\xe2\x0c\xb5\x99\xb7\x84\xa1w\x95\xd4\xd9xKk\xa9\xfaV\xb3u\xe4\xdd\x12\xc8\x11D:A}\x91\x8a\xab\xf4\x14a\xb39\xaai\xc6\rp\xaeL?\xbe\xad\x7f\x1d\x1a^\x0bLY\xd9\xcf\xbcP.\xc2\xd4\x9d&C\x11:\x8e4\xc9\x08\x0e\xe0\xaf\xadUZvVm\xd0\xbd\xeeb\xc6\xea\x95Q!h\xb4\xe1=\x19\xfb\xcbD\x12i\x11\x06\xfa\xa6\xe8\\*k=F\r\xb4\xc91\xe0\x13\x03&33r\x19r\xbc\x08\x01\x18\x16\xa3\xbc\xe0\xe3\xa8\xf6d)\xceY;\xda\x9cls\xb4\x10\x80\x139\xd1\x99\x8a\xe3\xc1\xf5\x872\x12\x89/\xc4\xa5\xfa?^\x10\xdcg\xbd|\x95\xd2\x81\x16\x07fN\xec/@\xd5i\xda\xf5\xbe\xc1x\xad\xa7\x10\x0c\x81\x103\xd3\x9b\xb7e\xec\xd0;\x99j\x0c\x8d\xee\x9f\x8d\xeeU\xa4\\NYx*p\xa3\x85\x15\xaeb\xfe\xfa\xc19\xf4\xdd\xfc\x89s!\xa0\x17\x9f\xb2v\x00N\xb4\xe9a\xa6 \xde\xd4=\xdb\xb6\xdfp\x873@\xe0\x17k\x14i\xa3l\xf3#\xa1_]\xb3\x1fv\xd12\xde\x94\xaaii\xff\xc2{o\xde\x96\xb0N\xb4\xf3\xc2C^\xbd{\xba%u\xc6\xbf|E\xf6?\xec\xeb\x88+\xed\xfdJ\x93JizcBN 5Fr\xc0\xea/Uo\xf1\x01"\x1e\x05\x12\xe1\x04O\xbc\x15\x9b\xc8\xb5h\xe6Z\xe7z~\xb9g\x04\xf9\x95\x91\\\xc0FD8\xe3%\xa2{x\x85T`\x01\x82\x9c \r\xd8\xa6FQ\xad\x19o\x9b\x90\xd3Y\xc4\xc7\x0f\xb1\xaeE\xa4\x07\xfb{X\x16\xe4\x83\x86\x15\xc0\xc9\xcd\x9a\x93\xce?\xdc\x18\x8e\xd5\xe5\x01\xf5.\x10\x1bw\xb1h\xb7\\^\x03\xf2\x82\xc4\xbc\xb4\xcb_?Z\xdb1\x19\x02<\xcb\x9dU\xc5\x12=\xf8\xbe\x81\xb2\x8dZxT\x13uw\xf9\xf5\xbf\xd0\nU\x8f\xd6\x90\xbd\xf9\xc0\xd4A^S`\xb7P\xac\x8cf\xf8\x8bk\xc6\xb5\xf1\x1c\xf1%\xf2a\xe4m;\x9f\xf5Jy\x89\x97L,\x9a\xf4y5SE\xa1\x1c\\uU\xa8\xccp\xd4?j\xd2\xc4\xab}H\x96\x00\xf7#p\x11\x96\xe5\xd6\xb2!0\x00\x01\xcdpL\xfa\xe2+EymE>\xf8|\xa3\xc2\xf5\xff\x00\'0\xdb \x16\x9f\xe6jHf\xb9\t\x11\xdd\xa2\xe6P\xf4B\xe5\xc4\xf3\xbd\xffNk\xd5\x9d\x0cDd]\xf2\xae\xd1`\x80\x9a\xd0\xe0\xb1\x16\xa1\x85\x97\xca~o\xba\x1dY\xdc&\xe1\x84\xf3/M\xb5\x13\x8c\xb4.8\xdeo\xf2\x00\xae\x87>^\xe2\x1c:"\x8f\xb12\x87\x87\x0b\x0e>*\x0c]\x92\xe8\xf9\x90\x9a\x10\x88LTq[\x04\x8a\x0b\x8d}\xad\x1bd]\xb4i\x84\xca\xc9\xe1\xca\xb5X\xf2q4\t\x86f\xd7Q\\\x87\x1b\xa9\xfb\xbc/\x92\xb8\xd9\xbbd\xab\xbf\xd0q\x9e\t\xa7\xc0\x9d\xef\xdc\x9ba`f\x85\xecNJB\xc6\xdd\xeazX}[\xd0-\x93\xdcQfl\x88\n\x82\xab\xd3\x87 F\xefK\xf4\xe7\x84\x862\xb7\x82G\x07\xfa[)c\x1e\xd5p\xd7Z\xf73\x93\xdeZ#\xf1dO[\x10/V\x0f\x0f\x92>\xf3\xad\x04\xff\xa7F\xe8\x91\x80\xf0\x02\xf7\x9fl\xe6O<\xc8\x14\xdc\xf7\xc9\x07\xccLM\x02\xf4]\xa1\x00f\x9e\xd4\x1b!z\x88\x9e\x1b\x0c`\xc7\xa5\x11\xdaJ\xd2\x10\x93.|\xd3\xfeo=\xc6\xe9\xd9\xf7\x87I\x91Y\xcb\x94\xd6\xbe\xb6HO5\xa9\x17\xfc\xf8A.\x997\xaf\x8f\xbe\x11R\x16\'\x1b\xc9\x1d\xe1\x99\x0c7[\xac,\xd1\x83\xd3\xeb\xd9G\x0cbr\x84<\xf2\xa0\xcd\x04\xb1,\x99\x08 $]-t\xcc\xa1\x8fU1?Zges\xf4\xf0a\xcc2q\xa1\xe3\x90U\xe7\n\x0e\xbe\xf7\xe5\xe7\x08\xf2#\xb5\xf8\x86\x9d\xc5\\uN\x90\xe0\xddpH}X\xf3R\x88x\xac\xf4}\x95\xda\x90[\xf0N\x88.u)\xce8\xb4;/|\x08\xd4{\x1fM\xae\t:~\x1f\xfe:\xfa\x91H\xea\xc0:\xd9\xc0\x99\x8b\xb0\x98\xac\x03\x80\xbe\x8e\xacP\xe0\x95\xe0\x80\xdb\x89K\x1a1\x89i:\x02,~f\x8e\x9c\x91\xabB\xcbnZ\xecG\xcf\xe2\xdd1|_7v\x9d\x1f$\x14\x99\xc2\x1dT?=\xf6n\xa9\x84>C\x9f\x0fn\xe4xS\x1b`\xd2\xb8 \x08P\xf5\xe61\x0f\x10\xa5\xc5\x92\xf9\x18(m\xd29\xfe\xd2\xda@-c\xef\xdb\x82\x16`f\x0eagp%,\xdc\t\x00\x077\x0e\xf1\x88\xbf\x18\xf1\x1d\xe6\x88\xbbG\xe74\x7f\xd0\xca\x94>\xb9\xc83\x05\xb3\xe2\x1e\xf2\xcf\xe6<\xc7\x94q\xda\xe9\xf8\xf4^\x01H\xf7~\x98%uu/\xcaH\xd1\r\xe9\x9c\xa7sUt\xa5-\xde\x14\xc8M)\x08\xcf\r\x0c"WB0X\x1a\xd4s;\xeb\xac\xdd|j^\xa9\xe08\xb7\xc8\x1d0\xc6\x11q\xd58^\'\x87r\x95G\x8af\xd5\xb2E\xdb\xa9\xf8\xfe\x8c\xf9n\xe0\xf5\xc9>7,\xeb\x05\x00$]\xe9\x1b\x884\xea|\xdc\xae\x845\xf5\x88\xedU|v\xc4\x8a\x13j!z\xa6\xe5Q\xd9\xc4\xb8\xd1^\xda\x17\x0f#\xae)\xaf\x11\x88\x0e|\x0bI\xaf\x0eBE\xc6\xeb\x87\x9c\xe2\xec,2\xb7\xfc\xb2XY\xf9\xbd\xbb\xc2\x913\xed4\x9c;\xd4/\x95\xc5 \x0cJ\xcb]l@\xc1\xf5\xebao\xf7\xdbi\xcf\x03\xd4\xfd\x86\xc9\x0e\xc1\xc5qZ-\x94|>N<\xfd\x87\x85W\xb7\xba\x18\x0e$\x0e?(\xf7F\xf2\x919\xa5\xb0\x80\xbcU\xaa\x10~\x00\xaf\x0f?\xb1]n\xbc\x95<^f8\x9f\x98O\x97~)\xf1\xd8\\\xa7\x91\x1f\x13T\x90-\x01\x07\xbb\x94\x86\x06\xbe\x88\x87B\x00k\xac&&}\x02\x11Sa\x87\xf6\xb3\xd8X\xe7h\xf4\xc9{?\x86Ss\xbf\xbbM\x03\xe6\xa1\xf8J\xb8\\6\x96\xca5onD3\xb9 <\x87\x1c \xd7I\x86G\\_s\xde/\xb0\x1d\xc7\xf2\x89rT\x1c\xebPH\xae\x16\x9b\x07\x8c\xe5f\x96\xc6\xca\\\x99$R\xe2\xcc\xd2\xcdz\xf3;\x1ax\xcc\xc6?\x1fl\x15b\xca`\xcb\xc1\xfd\r\xa6t\xdf\xa7?\xaa\x84\xdc\xec\x82\xceXi^r\xadb2S\x1e\xfc\x04\xc1\xe7\x17\xba&\xb2\xdc\x1a\xc1 G\x9f\xd3\x82\x828\xc26\x15\xf2L\xbaq\x93\xf0\x0c$\x81H\xee;\xde\xd7>\r6\x04\xa6\x9c.BY\xed\xef\xfe\x03\\\x18/\xf3\xe1\xf2\x89S\x11\n\xecyF\xeb#*\xf8z\xa7\xfb!L\x8c\x8f\xa3c\xb9\x1d\x06\x902\xa8\xad}y\xf2V\xf6\x03\xb1QY\xb8\xa5D\xd7\x9b*\x15d\x83\xb8\x8e\xae\x86P\x96\x13\xa4vC\x96\xb0\x9bT4;\xdd\xc9\x9e\xb0\xdd\xf9\x16\x88w~V\x1e\xe8\x13\x92\t1\x91\x1f\n\xbb\xae\xbdc#\xeb*\xbd\x84w{}\xcf\xf1 &4\xd8\xe7\x93\xa8\xbc\x83\xc9\x14\x07\xec\x82\xbd\xc0\xe2\xfdk;\x17^\xb5b\xcd\xe1=\xf7\xd1RhD\xf6\xf9M=t\xb5\xfc\x86\xd2\xad\xbd\xc1\xcb\x06\x04\xb1\xd74\xc5\x1a\x97\xbaj\xc7U\xb78\xbf\x18id_\taA\x9c\xa9\x96j\x1a\xb3%\xa2;l\xb52:\xb3a\xf4\xc2/\xc2\xe7?\xa3\'\xecG\x038\xd5Q\x18\xcc\xf78\xa4\xd4O\xc7tLl\xf2\xeb\x7f\xf2\x89/\xa3\xa89\x9f3\xe7\x93\x9e\xf2\xe4%\x83\x8c\x1f\x9aE\xc5\xb6\xc5N\x16\x92H\x08\xd2\x97\x99\x81c\x9c\xbe\n><\x14P\x7f\xba\xdb\xb0\x18w\xe9\xc5d\xfd\xd1Gj\xf0\x11\x04J\x13\x93\x8dd\x0b\x16\x93\xf6\xd3\xedZ\xf1\xc1\xa4\xa3\xd3V\x9e\x03,\xcd\x0f\x95\x97\xb3_T2\xa1\xdczj/RI-\xf4\x8e\xa8\xe5\x9a\x8d\xa1wUk\xe4\xa9`Q\x15\x06\xa9\xea)\xfaD\x8f\xfc\xc5U"i-\x1d\xa75\xdc\xa2~*\xe9\xd5\xa53\xf1M/\x92\xdf\x13$\x98/7t\xe5\xb04\xa62\xb5\xe1\xbe+T\x0e\\^\x16F\xaf\xd5\x0b\x83\x9607\x1f\x9b\xb0\xaeq1\xd9h\xb0\xb8\xdb\x08\x9fZ\xcb\xf0w\xb7\x89<\xf2\x18\x92\xe8#\xb1\xd8\x8f\x9a\xbb"\xf8\xfb\xe2!\xea;\xc5S)\x99H\xect\r\xd8\xef7c*\x06 \x1c\x07Dvy\x80\xb1\xd8\x80\xa0Jq\x05G\xaeR\xef.\xba\x8fQ^<>\xc8\xc6+\x07t\x1aK\x85\xf4\x8b\xcb\xd6!d\xf2\x990\x8a\xb3\xa4\xcb\xb6\\\xc6\x8c\xb8o\xc5\x08\xb7\xa9\x16\'\x9e\xccA\x1e\xba\xa3\xda\xb8\x85\xa0=gWyC\xdec\x05D\xc2\xd5\xecY\x99\xb7\x890o\xb4\xad\t\xebm\x7fv:\x13\x8b\xeb\xa1k\x12\xc1k\xab\xec\xfdO\xf3<\x15\xcd\xc3=\x99>\xd7\xa1p\r\x19R\x10\xbe\xfd\xaf:by`J\x07v\xef\xac|\xa2\x12%\x9byrH\xebl\x96\x01^\xf8L\xc6\xca\xe7\xa0f\xe0\xdb\xae\xc0\xda\xfc\xbc\x13\x0e\xad\xcf\x00I\x9f<~\xeej\xc8\rK\xe2\xd2{\xc6YG\x8e\xbd\xc6>\x8c\xd2\xf0\xccJtXCK\xfdc\xa0\xe5\x9c\x88\xb82xz\x0c\xc3e\xe8\x19\xe6\xd1\xdf\x06W\xbe\x99\x90N\xca\xf1\x80\xa1\xab<\xa2\xb82\xd3\x7f\xda\x9a\x84\n\xcf('
p259
tp260
bI410
I0
F0.0
tp261
sS'halloffame'
p262
g3
(cdeap.tools.support
HallOfFame
p263
c__builtin__
object
p264
Ntp265
Rp266
(dp267
S'keys'
p268
(lp269
g3
(cdeap.creator
FitnessMulti
p270
g264
Ntp271
Rp272
(dp273
S'wvalues'
p274
(cnumpy.core.multiarray
scalar
p275
(g19
S'\x8b\x0c\x18K#\xbb\xd3?'
p276
tp277
Rp278
g275
(g19
S'\xec\xcf"\x97U\xd1\xb1\xbe'
p279
tp280
Rp281
tp282
sbag3
(g270
g264
Ntp283
Rp284
(dp285
g274
(g275
(g19
S'^?\xbc\x16h\x1b\xd4?'
p286
tp287
Rp288
g275
(g19
S"\xbcY\xe4=\x89'\xbf\xbe"
p289
tp290
Rp291
tp292
sbag3
(g270
g264
Ntp293
Rp294
(dp295
g274
(g275
(g19
S'2RH\xc9\xed\x1c\xd4?'
p296
tp297
Rp298
g275
(g19
S"aO'\xe2K\xe2\xb2\xbe"
p299
tp300
Rp301
tp302
sbasS'items'
p303
(lp304
g3
(cdeap.creator
Individual
p305
g5
(lp306
F0.05056201340164157
aF0.8098888141133982
aF0.5362270631637487
aF0.7258365441102432
aF0.1583200580207309
aF0.9026865743555984
aF0.31285855836166243
aF0.30334902252230844
aF0.36657667043437614
aF0.4357952826123316
aF0.08863112697092246
aF0.2469174541878405
atp307
Rp308
(dp309
g237
g294
sbag3
(g305
g5
(lp310
F0.24918546473019543
aF0.05163355944825865
aF0.5370013878257972
aF0.5865439192259516
aF0.9092873628586676
aF0.9280615477572177
aF0.22914223385528043
aF0.05198358745371212
aF0.9555122785651449
aF0.03183405894922153
aF0.8061878984373599
aF0.3059722003061569
atp311
Rp312
(dp313
g237
g284
sbag3
(g305
g5
(lp314
F0.6153508258204483
aF0.7145352462540179
aF0.01549469035937534
aF0.6731187768758369
aF0.8571908651620515
aF0.943815723074835
aF0.4049340348867464
aF0.05198358745371212
aF0.9555122785651449
aF0.03183405894922153
aF0.8061878984373599
aF0.3059722003061569
atp315
Rp316
(dp317
g237
g272
sbasS'maxsize'
p318
I3
sS'similar'
p319
coperator
eq
p320
sbsS'population'
p321
(lp322
g3
(g305
g5
(lp323
F0.4282985318715673
aF0.39108506584272607
aF0.9318076889000578
aF0.28652054914562464
aF0.09814080098175015
aF0.9756301886922735
aF0.8625092807079269
aF0.7827080711447428
aF0.8441747346080353
aF0.6406599939417352
aF0.3138464102568903
aF0.3598563567184323
atp324
Rp325
(dp326
g237
g3
(g270
g264
Ntp327
Rp328
(dp329
g274
(g275
(g19
S'\xaeTf\xb1x\x98\xcd?'
p330
tp331
Rp332
g275
(g19
S'\x15\xaf\xa6|4\r\xaa\xbe'
p333
tp334
Rp335
tp336
sbsbag3
(g305
g5
(lp337
F0.39177605799344617
aF0.3360338224573747
aF0.6715336725570914
aF0.41302106823948104
aF0.8926403079892928
aF0.4939731896959406
aF0.3481567282421939
aF0.3586750229351122
aF0.2613477822533109
aF0.8128044325740993
aF0.017197324120488022
aF0.3544633343769156
atp338
Rp339
(dp340
g237
g3
(g270
g264
Ntp341
Rp342
(dp343
g274
(g275
(g19
S'\x15\xbd.\x17\xffa\xcb?'
p344
tp345
Rp346
g275
(g19
S']#\x01]\x02\xb5\xa1\xbe'
p347
tp348
Rp349
tp350
sbsbag3
(g305
g5
(lp351
F0.1261926451202363
aF0.34725283091614767
aF0.3663043314249762
aF0.30568676446835763
aF0.0786089816075548
aF0.004894445843767081
aF0.15139528835922378
aF0.7791004551531718
aF0.9080022698462378
aF0.2549589698892829
aF0.4874900052306662
aF0.7410229305886286
atp352
Rp353
(dp354
g237
g3
(g270
g264
Ntp355
Rp356
(dp357
g274
(g275
(g19
S'\x0fHz\xe7<F\xa8?'
p358
tp359
Rp360
g275
(g19
S'\xe2\xbc\x82\x14\xa4\x0c\x83\xbe'
p361
tp362
Rp363
tp364
sbsbag3
(g305
g5
(lp365
F0.3917726245005744
aF0.018238833432312473
aF0.06931826443882871
aF0.9601751299214835
aF0.4531083339780627
aF0.15532998486162375
aF0.15332415483552697
aF0.2815553656488736
aF0.04918913484266252
aF0.9448121344424785
aF0.8228172071826297
aF0.018064307748204333
atp366
Rp367
(dp368
g237
g3
(g270
g264
Ntp369
Rp370
(dp371
g274
(g275
(g19
S'\xf6-\xdcV\xb8\xbf\xcf?'
p372
tp373
Rp374
g275
(g19
S'\xd7\xdf\xe9\x0b\xd2\xcc\x84\xbe'
p375
tp376
Rp377
tp378
sbsbag3
(g305
g5
(lp379
F0.6997707730699585
aF0.39091740980191236
aF0.9141788489794966
aF0.0885995069969332
aF0.6481394513273412
aF0.26334991964142584
aF0.9892342880620368
aF0.14264058928864154
aF0.46230614177613016
aF0.9929195420671095
aF0.38257449700056045
aF0.18728073560931235
atp380
Rp381
(dp382
g237
g3
(g270
g264
Ntp383
Rp384
(dp385
g274
(g275
(g19
S"\xcd\xfe'\xe5\x8c \xca?"
p386
tp387
Rp388
g275
(g19
S'R<5\xdf\x8aN\x9d\xbe'
p389
tp390
Rp391
tp392
sbsbag3
(g305
g5
(lp393
F0.38524562333335244
aF0.23374296478265633
aF0.16647021505237802
aF0.9130337329656484
aF0.8774396894591524
aF0.7310485543900547
aF0.44606587340577886
aF0.5222300725747118
aF0.6796118466754918
aF0.9616427006635785
aF0.8583216508265967
aF0.23811586326210687
atp394
Rp395
(dp396
g237
g3
(g270
g264
Ntp397
Rp398
(dp399
g274
(g275
(g19
S'\xc6\xb9+\xf9\xa4e\xcb?'
p400
tp401
Rp402
g275
(g19
S'\x1a\xe6\xc4\xee\x13\xf6\xa8\xbe'
p403
tp404
Rp405
tp406
sbsbag3
(g305
g5
(lp407
F0.8192021933864183
aF0.195966031659787
aF0.1264220896447441
aF0.10674394583132119
aF0.8420008555316775
aF0.23776731622132952
aF0.6222038668014146
aF0.8101877499512782
aF0.735053517611345
aF0.0848588563269127
aF0.12389198950322655
aF0.24281077713368482
atp408
Rp409
(dp410
g237
g3
(g270
g264
Ntp411
Rp412
(dp413
g274
(g275
(g19
S'H\xac\x957\xb30\xce?'
p414
tp415
Rp416
g275
(g19
S'\xe5\xa8\xda\xd7S\xf2\xb9\xbe'
p417
tp418
Rp419
tp420
sbsbag3
(g305
g5
(lp421
F0.2089534578083908
aF0.732678957009676
aF0.38653074582241886
aF0.07637562885837601
aF0.8425001392050595
aF0.5401395242463263
aF0.19758043629402744
aF0.864514249489181
aF0.6225108117657846
aF0.1197357597029014
aF0.48378065986071117
aF0.6902659166679408
atp422
Rp423
(dp424
g237
g3
(g270
g264
Ntp425
Rp426
(dp427
g274
(g275
(g19
S'*t4\xbbTO\xbe?'
p428
tp429
Rp430
g275
(g19
S'G\xca8A\x88U\xa0\xbe'
p431
tp432
Rp433
tp434
sbsbag3
(g305
g5
(lp435
F0.9826466852753736
aF0.9607668239154928
aF0.9806571294573715
aF0.4899309391007717
aF0.7392147419094316
aF0.10172915961064688
aF0.47730025879044535
aF0.2546923970650965
aF0.14295139715932903
aF0.21074472041386427
aF0.6209360561164917
aF0.27085420504796365
atp436
Rp437
(dp438
g237
g3
(g270
g264
Ntp439
Rp440
(dp441
g274
(g275
(g19
S'\xcaTM\xc0H!\xce?'
p442
tp443
Rp444
g275
(g19
S'\xea\x90b`wD\xc2\xbe'
p445
tp446
Rp447
tp448
sbsbag3
(g305
g5
(lp449
F0.5467217314943805
aF0.8748936936439203
aF0.6433238179984753
aF0.3004266701165743
aF0.4169360934975619
aF0.42937277524298856
aF0.19460334974516014
aF0.9144348714838644
aF0.9881607864829164
aF0.9840113951345496
aF0.7801150046720253
aF0.292275528399806
atp450
Rp451
(dp452
g237
g3
(g270
g264
Ntp453
Rp454
(dp455
g274
(g275
(g19
S'\xbe\xc0\xc6\xda\xa9F\xcb?'
p456
tp457
Rp458
g275
(g19
S'\xfe\x11\xdd\xf4%\x90\xd4\xbe'
p459
tp460
Rp461
tp462
sbsbag3
(g305
g5
(lp463
F0.5699267248266079
aF0.09055982779376925
aF0.7431127624863771
aF0.2712230609754208
aF0.5093593489466858
aF0.5605078834043098
aF0.9780703927093347
aF0.8008553117806694
aF0.5151741902164818
aF0.13952074854552377
aF0.6273343291315591
aF0.6248071453184603
atp464
Rp465
(dp466
g237
g3
(g270
g264
Ntp467
Rp468
(dp469
g274
(g275
(g19
S'R\xc6\x11\\\\\xc3\xc0?'
p470
tp471
Rp472
g275
(g19
S'\x10KD#\x9e \x9c\xbe'
p473
tp474
Rp475
tp476
sbsbag3
(g305
g5
(lp477
F0.433269464399588
aF0.5945855646287227
aF0.8606997405092432
aF0.7459352196482453
aF0.3474122742321655
aF0.9289172176793571
aF0.5654495778746993
aF0.18871185129596768
aF0.05005764439094751
aF0.33419811249680764
aF0.7265180751921445
aF0.9988688602501237
atp478
Rp479
(dp480
g237
g3
(g270
g264
Ntp481
Rp482
(dp483
g274
(g275
(g19
S'\xc6\x0e=\x7f*\xa6\xa4?'
p484
tp485
Rp486
g275
(g19
S'\xe4\xf1\xd6]V\x0b{\xbe'
p487
tp488
Rp489
tp490
sbsbag3
(g305
g5
(lp491
F0.6153508258204483
aF0.7145352462540179
aF0.01549469035937534
aF0.6731187768758369
aF0.9798676678811296
aF0.8031816417222576
aF0.1786730195177918
aF0.7612278144045045
aF0.32618901837752423
aF0.9671477913926578
aF0.31916834676125483
aF0.07732212831197494
atp492
Rp493
(dp494
g237
g3
(g270
g264
Ntp495
Rp496
(dp497
g274
(g275
(g19
S'\x05R\xbd\xfe\x02\xdc\xce?'
p498
tp499
Rp500
g275
(g19
S'\xc7z\xe3E\xf4\xa0\x97\xbe'
p501
tp502
Rp503
tp504
sbsbag3
(g305
g5
(lp505
F0.02174422316200164
aF0.542738670937314
aF0.6200758957753457
aF0.4771323022110082
aF0.7248025261248618
aF0.9843738835990383
aF0.5082113570381304
aF0.42260348535542
aF0.6293960993208808
aF0.9600990420064359
aF0.4736280844665858
aF0.8245705452743499
atp506
Rp507
(dp508
g237
g3
(g270
g264
Ntp509
Rp510
(dp511
g274
(g275
(g19
S'K\xe3\xbc\x11M?\xb2?'
p512
tp513
Rp514
g275
(g19
S'\r6t\x88\xe7\x99\x8a\xbe'
p515
tp516
Rp517
tp518
sbsbag3
(g305
g5
(lp519
F0.37196643994204925
aF0.5251944739889904
aF0.4788753000458973
aF0.7280456593855987
aF0.43179894128368124
aF0.8810542357293347
aF0.27543703966078326
aF0.6500322666671083
aF0.41055281389881537
aF0.5064450743336961
aF0.44751845282738867
aF0.03447515489693542
atp520
Rp521
(dp522
g237
g3
(g270
g264
Ntp523
Rp524
(dp525
g274
(g275
(g19
S'.\xb13j\x96\xfa\xce?'
p526
tp527
Rp528
g275
(g19
S'\xbe4)\xf3\xa65\xa5\xbe'
p529
tp530
Rp531
tp532
sbsbag3
(g305
g5
(lp533
F0.3977738718142759
aF0.7648342486828403
aF0.8090040314787235
aF0.8754198222681824
aF0.7019726054814931
aF0.16224648973093025
aF0.914795534038158
aF0.08340853320634212
aF0.617311879549827
aF0.3774057608331005
aF0.4946407410859651
aF0.3244149731935403
atp534
Rp535
(dp536
g237
g3
(g270
g264
Ntp537
Rp538
(dp539
g274
(g275
(g19
S'\xe6\xc0ur\x93\xfe\xcc?'
p540
tp541
Rp542
g275
(g19
S'K\x97:\x9f\xf4\x94\xa2\xbe'
p543
tp544
Rp545
tp546
sbsbag3
(g305
g5
(lp547
F0.470146063623088
aF0.5646917140498672
aF0.8308708203339599
aF0.402648838639734
aF0.040171698322366
aF0.9981282550970809
aF0.4272261807451637
aF0.48813967558466764
aF0.6767265743229808
aF0.6289489583980588
aF0.7995637826674535
aF0.5490392284565057
atp548
Rp549
(dp550
g237
g3
(g270
g264
Ntp551
Rp552
(dp553
g274
(g275
(g19
S'{V[t>\x0f\xc8?'
p554
tp555
Rp556
g275
(g19
S'\xbd\x84\xd2\xa0\xdd\xef\xb0\xbe'
p557
tp558
Rp559
tp560
sbsbag3
(g305
g5
(lp561
F0.15233518853583672
aF0.7469588830278786
aF0.5545896409326877
aF0.9152963737182432
aF0.3168475934074412
aF0.3550980839558209
aF0.47573959749099504
aF0.6327629020606702
aF0.11127498023448668
aF0.5488481558124789
aF0.7999276592093311
aF0.12624112202360493
atp562
Rp563
(dp564
g237
g3
(g270
g264
Ntp565
Rp566
(dp567
g274
(g275
(g19
S'\x12\x15\xbf\x8c,s\xcc?'
p568
tp569
Rp570
g275
(g19
S'5\xb4\n\xa9\xc7\xcb\xcb\xbe'
p571
tp572
Rp573
tp574
sbsbag3
(g305
g5
(lp575
F0.44134954016383476
aF0.06300531217697225
aF0.528743699663317
aF0.688838249436935
aF0.3509266337834439
aF0.2024745162055609
aF0.9742288428111889
aF0.3498709751364849
aF0.33884911631367487
aF0.8325445412322767
aF0.0708026209046646
aF0.05601666513193049
atp576
Rp577
(dp578
g237
g3
(g270
g264
Ntp579
Rp580
(dp581
g274
(g275
(g19
S'r\x1e\x01\xd8\xf6\x7f\xcd?'
p582
tp583
Rp584
g275
(g19
S'\xc2k\xd4V\xca>\xa9\xbe'
p585
tp586
Rp587
tp588
sbsbag3
(g305
g5
(lp589
F0.41853433983697486
aF0.14510483185253498
aF0.3767799034210847
aF0.7345557504852317
aF0.8571908651620515
aF0.943815723074835
aF0.4049340348867464
aF0.8574020717714989
aF0.6438666032667446
aF0.20528643239486033
aF0.7349440483781373
aF0.33069945842702675
atp590
Rp591
(dp592
g237
g3
(g270
g264
Ntp593
Rp594
(dp595
g274
(g275
(g19
S'\xc1U\x82\xa9\xaa\xe4\xd1?'
p596
tp597
Rp598
g275
(g19
S'0N\xb3[\xbc\xdf\xb0\xbe'
p599
tp600
Rp601
tp602
sbsbag3
(g305
g5
(lp603
F0.2766689550089556
aF0.8128849631105783
aF0.11848771818584125
aF0.4603720210222896
aF0.12091237264537136
aF0.6383848556578069
aF0.5513314141125404
aF0.38287953371464056
aF0.5525501209009145
aF0.34178214294311937
aF0.1452470305371617
aF0.5323800646871312
atp604
Rp605
(dp606
g237
g3
(g270
g264
Ntp607
Rp608
(dp609
g274
(g275
(g19
S'\xe3\x80L4{z\xc9?'
p610
tp611
Rp612
g275
(g19
S']"\xf7\xf9O7\xb2\xbe'
p613
tp614
Rp615
tp616
sbsbag3
(g305
g5
(lp617
F0.8192021933864183
aF0.195966031659787
aF0.1264220896447441
aF0.10674394583132119
aF0.8420008555316775
aF0.23776731622132952
aF0.6222038668014146
aF0.8101877499512782
aF0.735053517611345
aF0.0848588563269127
aF0.12389198950322655
aF0.27085420504796365
atp618
Rp619
(dp620
g237
g3
(g270
g264
Ntp621
Rp622
(dp623
g274
(g275
(g19
S'\x9a\xd5*\xcb\x11\x8e\xcd?'
p624
tp625
Rp626
g275
(g19
S'\xa0A\xf7\xd7\xe4o\xc0\xbe'
p627
tp628
Rp629
tp630
sbsbag3
(g305
g5
(lp631
F0.9826466852753736
aF0.9607668239154928
aF0.9806571294573715
aF0.4899309391007717
aF0.7392147419094316
aF0.10172915961064688
aF0.47730025879044535
aF0.2546923970650965
aF0.14295139715932903
aF0.21074472041386427
aF0.6209360561164917
aF0.24281077713368482
atp632
Rp633
(dp634
g237
g3
(g270
g264
Ntp635
Rp636
(dp637
g274
(g275
(g19
S'\xd3\xa7Z\xc7\x8eR\xcf?'
p638
tp639
Rp640
g275
(g19
S'\xd6\xfeU\xca\xcf\xed\xc2\xbe'
p641
tp642
Rp643
tp644
sbsbag3
(g305
g5
(lp645
F0.1580770582390545
aF0.45422471162834055
aF0.09766701948725842
aF0.5856224991390149
aF0.676962274628266
aF0.08976150639211256
aF0.575708804540505
aF0.05628540389043368
aF0.30859956012760803
aF0.08814338200237204
aF0.11120889142306756
aF0.44657494278536647
atp646
Rp647
(dp648
g237
g3
(g270
g264
Ntp649
Rp650
(dp651
g274
(g275
(g19
S'\xca\x01\x1c\x95vA\xc2?'
p652
tp653
Rp654
g275
(g19
S'n\x85\xad9\\a\xa5\xbe'
p655
tp656
Rp657
tp658
sbsbag3
(g305
g5
(lp659
F0.4282985318715673
aF0.39108506584272607
aF0.9318076889000578
aF0.28652054914562464
aF0.09814080098175015
aF0.9756301886922735
aF0.8625092807079269
aF0.7827080711447428
aF0.8441747346080353
aF0.6406599939417352
aF0.3138464102568903
aF0.3598563567184323
atp660
Rp661
(dp662
g237
g3
(g270
g264
Ntp663
Rp664
(dp665
g274
(g275
(g19
S'\xaeTf\xb1x\x98\xcd?'
p666
tp667
Rp668
g275
(g19
S'\x15\xaf\xa6|4\r\xaa\xbe'
p669
tp670
Rp671
tp672
sbsbag3
(g305
g5
(lp673
F0.38524562333335244
aF0.23374296478265633
aF0.01549469035937534
aF0.6731187768758369
aF0.9798676678811296
aF0.8031816417222576
aF0.1786730195177918
aF0.7612278144045045
aF0.32618901837752423
aF0.9671477913926578
aF0.31916834676125483
aF0.07732212831197494
atp674
Rp675
(dp676
g237
g3
(g270
g264
Ntp677
Rp678
(dp679
g274
(g275
(g19
S'\xaa\xbaC\xe2\x01+\xcf?'
p680
tp681
Rp682
g275
(g19
S':#)\x9d~\x99\x95\xbe'
p683
tp684
Rp685
tp686
sbsbag3
(g305
g5
(lp687
F0.6153508258204483
aF0.7145352462540179
aF0.16647021505237802
aF0.9130337329656484
aF0.8774396894591524
aF0.7310485543900547
aF0.44606587340577886
aF0.5222300725747118
aF0.6796118466754918
aF0.9616427006635785
aF0.8583216508265967
aF0.23811586326210687
atp688
Rp689
(dp690
g237
g3
(g270
g264
Ntp691
Rp692
(dp693
g274
(g275
(g19
S'J\xc4w2sp\xca?'
p694
tp695
Rp696
g275
(g19
S'^7V\x17yj\xb0\xbe'
p697
tp698
Rp699
tp700
sbsbag3
(g305
g5
(lp701
F0.6153508258204483
aF0.7145352462540179
aF0.06931826443882871
aF0.9601751299214835
aF0.4531083339780627
aF0.15532998486162375
aF0.15332415483552697
aF0.2815553656488736
aF0.04918913484266252
aF0.9448121344424785
aF0.8228172071826297
aF0.018064307748204333
atp702
Rp703
(dp704
g237
g3
(g270
g264
Ntp705
Rp706
(dp707
g274
(g275
(g19
S'nX\xae\xcc\x84\\\xcf?'
p708
tp709
Rp710
g275
(g19
S'\xbef\x85\xe8\xb2\xcc\x95\xbe'
p711
tp712
Rp713
tp714
sbsbag3
(g305
g5
(lp715
F0.3917726245005744
aF0.018238833432312473
aF0.01549469035937534
aF0.6731187768758369
aF0.9798676678811296
aF0.8031816417222576
aF0.1786730195177918
aF0.7612278144045045
aF0.32618901837752423
aF0.9671477913926578
aF0.31916834676125483
aF0.07732212831197494
atp716
Rp717
(dp718
g237
g3
(g270
g264
Ntp719
Rp720
(dp721
g274
(g275
(g19
S'e\xe5\xc7p=\x89\xcf?'
p722
tp723
Rp724
g275
(g19
S'\xcd\xdft6h_\x90\xbe'
p725
tp726
Rp727
tp728
sbsbag3
(g305
g5
(lp729
F0.6153508258204483
aF0.7145352462540179
aF0.01549469035937534
aF0.6731187768758369
aF0.9798676678811296
aF0.8031816417222576
aF0.1786730195177918
aF0.7612278144045045
aF0.32618901837752423
aF0.9671477913926578
aF0.31916834676125483
aF0.07732212831197494
atp730
Rp731
(dp732
g237
g3
(g270
g264
Ntp733
Rp734
(dp735
g274
(g275
(g19
S'\x05R\xbd\xfe\x02\xdc\xce?'
p736
tp737
Rp738
g275
(g19
S'\xc7z\xe3E\xf4\xa0\x97\xbe'
p739
tp740
Rp741
tp742
sbsbag3
(g305
g5
(lp743
F0.5392098924544747
aF0.8043956150669301
aF0.835617100102743
aF0.9147248017286215
aF0.7461496672245832
aF0.7863904273298261
aF0.13454888650757268
aF0.05393059880996831
aF0.02393750030499997
aF0.08019626131044644
aF0.5842951756491873
aF0.8662038388612587
atp744
Rp745
(dp746
g237
g3
(g270
g264
Ntp747
Rp748
(dp749
g274
(g275
(g19
S'\x03P\xed\xb7\r\xe6\xb0?'
p750
tp751
Rp752
g275
(g19
S'\xd5\xb4\xe4F\x94\xd5\x93\xbe'
p753
tp754
Rp755
tp756
sbsbag3
(g305
g5
(lp757
F0.3239633082099487
aF0.19030661592384157
aF0.09054901805079263
aF0.8088518898292608
aF0.3134820310322477
aF0.8387710059717108
aF0.9712935598358494
aF0.5733298647640408
aF0.2470951086631854
aF0.8413107342289966
aF0.963565429253015
aF0.3187891211394638
atp758
Rp759
(dp760
g237
g3
(g270
g264
Ntp761
Rp762
(dp763
g274
(g275
(g19
S'R\x08X!D\xe1\xcd?'
p764
tp765
Rp766
g275
(g19
S'\xb6k\xa4\x959\xc8\xa4\xbe'
p767
tp768
Rp769
tp770
sbsbag3
(g305
g5
(lp771
F0.9634610806824448
aF0.33129443070376174
aF0.8941822333003209
aF0.7163154499809874
aF0.7613234579039797
aF0.35141026302676226
aF0.1293339178697237
aF0.7777130327573014
aF0.09731993389319504
aF0.7784624453355886
aF0.03513865974220698
aF0.5595123639031958
atp772
Rp773
(dp774
g237
g3
(g270
g264
Ntp775
Rp776
(dp777
g274
(g275
(g19
S'\xe6\xd8o\xd6\x0c\xc5\xc0?'
p778
tp779
Rp780
g275
(g19
S'\x9b\xc3\xf8H\x0f\x8b\x90\xbe'
p781
tp782
Rp783
tp784
sbsbag3
(g305
g5
(lp785
F0.4358767478179413
aF0.8645013212276391
aF0.3359667034809475
aF0.2343301610285652
aF0.7003798816042675
aF0.052721676574943865
aF0.7869859520247748
aF0.2633217529439167
aF0.5028409922054778
aF0.7589939662118952
aF0.21069269422028303
aF0.7959352303289221
atp786
Rp787
(dp788
g237
g3
(g270
g264
Ntp789
Rp790
(dp791
g274
(g275
(g19
S'\xc2W\x9b\xf3r\x00\xa6?'
p792
tp793
Rp794
g275
(g19
S'D\xf8rz\xe1\x13u\xbe'
p795
tp796
Rp797
tp798
sbsbag3
(g305
g5
(lp799
F0.540985975748953
aF0.3637971949673625
aF0.6890625195508865
aF0.5612990096267667
aF0.37579836327417715
aF0.7626027472393077
aF0.3719158983783949
aF0.5455328810712349
aF0.6039635272423522
aF0.10934474365545066
aF0.32503628245807525
aF0.2046139603865853
atp800
Rp801
(dp802
g237
g3
(g270
g264
Ntp803
Rp804
(dp805
g274
(g275
(g19
S'\xf5q\xeb\xee\xa6E\xd3?'
p806
tp807
Rp808
g275
(g19
S's\xfa\x9a\x1e/\xa4\xa5\xbe'
p809
tp810
Rp811
tp812
sbsbag3
(g305
g5
(lp813
F0.24499886868208154
aF0.4727295817155135
aF0.05873353468975062
aF0.5512352311349068
aF0.4142636701359885
aF0.8656472577093354
aF0.8042032383484251
aF0.23341503497749283
aF0.21533452106932027
aF0.7716512413457348
aF0.6180253934412511
aF0.900184778445074
atp814
Rp815
(dp816
g237
g3
(g270
g264
Ntp817
Rp818
(dp819
g274
(g275
(g19
S'\xc0fG%8\xdc\xaa?'
p820
tp821
Rp822
g275
(g19
S'\xf8;\xe6z\xa3\x85\x80\xbe'
p823
tp824
Rp825
tp826
sbsbag3
(g305
g5
(lp827
F0.2691094858100369
aF0.13435987678362626
aF0.849198120368014
aF0.8971530123986611
aF0.38755589524239575
aF0.07479146662476255
aF0.10172061868103477
aF0.42803308789616257
aF0.04938875465351622
aF0.4702338667954342
aF0.3497197112065128
aF0.21964668223676087
atp828
Rp829
(dp830
g237
g3
(g270
g264
Ntp831
Rp832
(dp833
g274
(g275
(g19
S'N\x88*9b\xb9\xcf?'
p834
tp835
Rp836
g275
(g19
S'\x1a9\xb9\x80\x9f\xf7\xc3\xbe'
p837
tp838
Rp839
tp840
sbsbag3
(g305
g5
(lp841
F0.8301577595797353
aF0.8529222731683952
aF0.5331508479506235
aF0.5741538614628864
aF0.6498857414547091
aF0.6347475822965788
aF0.6144258498154396
aF0.3768976888028793
aF0.5446525153711715
aF0.08704021259471884
aF0.10396053617855716
aF0.7660722826256045
atp842
Rp843
(dp844
g237
g3
(g270
g264
Ntp845
Rp846
(dp847
g274
(g275
(g19
S'i\t\xda}\xd2\xaf\xb7?'
p848
tp849
Rp850
g275
(g19
S'\xca|\x1a\xfbP\x0f\x97\xbe'
p851
tp852
Rp853
tp854
sbsbag3
(g305
g5
(lp855
F0.6153508258204483
aF0.7145352462540179
aF0.06931826443882871
aF0.9601751299214835
aF0.4531083339780627
aF0.15532998486162375
aF0.15332415483552697
aF0.2815553656488736
aF0.04918913484266252
aF0.9448121344424785
aF0.8228172071826297
aF0.018064307748204333
atp856
Rp857
(dp858
g237
g3
(g270
g264
Ntp859
Rp860
(dp861
g274
(g275
(g19
S'mX\xae\xcc\x84\\\xcf?'
p862
tp863
Rp864
g275
(g19
S'\xbef\x85\xe8\xb2\xcc\x95\xbe'
p865
tp866
Rp867
tp868
sbsbag3
(g305
g5
(lp869
F0.6579820569747172
aF0.14510483185253498
aF0.6292046196437572
aF0.7345557504852317
aF0.8571908651620515
aF0.943815723074835
aF0.4049340348867464
aF0.8574020717714989
aF0.6438666032667446
aF0.20528643239486033
aF0.5398410038532847
aF0.33069945842702675
atp870
Rp871
(dp872
g237
g3
(g270
g264
Ntp873
Rp874
(dp875
g274
(g275
(g19
S'\x12\x81\xcf`\xf3\x14\xd2?'
p876
tp877
Rp878
g275
(g19
S'/=\x9a\x96\xa6\xa6\xb3\xbe'
p879
tp880
Rp881
tp882
sbsbag3
(g305
g5
(lp883
F0.6153508258204483
aF0.7145352462540179
aF0.01549469035937534
aF0.6731187768758369
aF0.9798676678811296
aF0.15532998486162375
aF0.15332415483552697
aF0.2815553656488736
aF0.04918913484266252
aF0.9448121344424785
aF0.8228172071826297
aF0.018064307748204333
atp884
Rp885
(dp886
g237
g3
(g270
g264
Ntp887
Rp888
(dp889
g274
(g275
(g19
S'\xdb\x12 ~sN\xcf?'
p890
tp891
Rp892
g275
(g19
S'\x0b1\xc8\xa2\xb8\xdd\x98\xbe'
p893
tp894
Rp895
tp896
sbsbag3
(g305
g5
(lp897
F0.6153508258204483
aF0.7145352462540179
aF0.06931826443882871
aF0.9601751299214835
aF0.4531083339780627
aF0.8031816417222576
aF0.1786730195177918
aF0.7612278144045045
aF0.32618901837752423
aF0.9671477913926578
aF0.31916834676125483
aF0.07732212831197494
atp898
Rp899
(dp900
g237
g3
(g270
g264
Ntp901
Rp902
(dp903
g274
(g275
(g19
S'\xc2q\x99|A\xb3\xce?'
p904
tp905
Rp906
g275
(g19
S'\x97\x188\xc3\x1c\xeb\x9d\xbe'
p907
tp908
Rp909
tp910
sbsbag3
(g305
g5
(lp911
F0.41853433983697486
aF0.018238833432312473
aF0.06931826443882871
aF0.9601751299214835
aF0.4531083339780627
aF0.15532998486162375
aF0.15332415483552697
aF0.2815553656488736
aF0.04918913484266252
aF0.9448121344424785
aF0.8228172071826297
aF0.018064307748204333
atp912
Rp913
(dp914
g237
g3
(g270
g264
Ntp915
Rp916
(dp917
g274
(g275
(g19
S'"wR \x9e\xbf\xcf?'
p918
tp919
Rp920
g275
(g19
S'\xff\x19f\x1e\x10(\x84\xbe'
p921
tp922
Rp923
tp924
sbsbag3
(g305
g5
(lp925
F0.3917726245005744
aF0.14510483185253498
aF0.3767799034210847
aF0.7345557504852317
aF0.8571908651620515
aF0.943815723074835
aF0.4049340348867464
aF0.8574020717714989
aF0.6438666032667446
aF0.20528643239486033
aF0.7349440483781373
aF0.33069945842702675
atp926
Rp927
(dp928
g237
g3
(g270
g264
Ntp929
Rp930
(dp931
g274
(g275
(g19
S'\xdd}\xd5Ig\xde\xd1?'
p932
tp933
Rp934
g275
(g19
S'9\xfar\x89\xb1\xca\xb0\xbe'
p935
tp936
Rp937
tp938
sbsbag3
(g305
g5
(lp939
F0.6153508258204483
aF0.7145352462540179
aF0.06931826443882871
aF0.9601751299214835
aF0.4531083339780627
aF0.15532998486162375
aF0.15332415483552697
aF0.8101877499512782
aF0.735053517611345
aF0.0848588563269127
aF0.12389198950322655
aF0.24281077713368482
atp940
Rp941
(dp942
g237
g3
(g270
g264
Ntp943
Rp944
(dp945
g274
(g275
(g19
S'pF\xad\x81s8\xd0?'
p946
tp947
Rp948
g275
(g19
S'\xed:E(Z\xee\xad\xbe'
p949
tp950
Rp951
tp952
sbsbag3
(g305
g5
(lp953
F0.6153508258204483
aF0.7145352462540179
aF0.01549469035937534
aF0.6731187768758369
aF0.43179894128368124
aF0.8810542357293347
aF0.27543703966078326
aF0.6500322666671083
aF0.41055281389881537
aF0.5064450743336961
aF0.44751845282738867
aF0.03447515489693542
atp954
Rp955
(dp956
g237
g3
(g270
g264
Ntp957
Rp958
(dp959
g274
(g275
(g19
S'mi\xb1\x12\x00\x01\xd0?'
p960
tp961
Rp962
g275
(g19
S'z\x1ewR\x1f\xe4\x9c\xbe'
p963
tp964
Rp965
tp966
sbsbag3
(g305
g5
(lp967
F0.8192021933864183
aF0.36447050230291633
aF0.1264220896447441
aF0.10674394583132119
aF0.8420008555316775
aF0.545599406215335
aF0.6222038668014146
aF0.8101877499512782
aF0.735053517611345
aF0.5628405579445198
aF0.12389198950322655
aF0.24281077713368482
atp968
Rp969
(dp970
g237
g3
(g270
g264
Ntp971
Rp972
(dp973
g274
(g275
(g19
S'\xbe/\xbe]\xae\xa9\xcf?'
p974
tp975
Rp976
g275
(g19
S'\x19$9/\xfd\xd9\xc2\xbe'
p977
tp978
Rp979
tp980
sbsbag3
(g305
g5
(lp981
F0.8192021933864183
aF0.195966031659787
aF0.1264220896447441
aF0.10674394583132119
aF0.8420008555316775
aF0.23776731622132952
aF0.6222038668014146
aF0.2815553656488736
aF0.04918913484266252
aF0.9448121344424785
aF0.8228172071826297
aF0.018064307748204333
atp982
Rp983
(dp984
g237
g3
(g270
g264
Ntp985
Rp986
(dp987
g274
(g275
(g19
S'>\xafJ\xb4p\xb8\xcf?'
p988
tp989
Rp990
g275
(g19
S'c\xa5y\xf4tG\x83\xbe'
p991
tp992
Rp993
tp994
sbsbag3
(g305
g5
(lp995
F0.8270552500574099
aF0.44884053894165943
aF0.33812457496231574
aF0.8045662159019294
aF0.09562279198259482
aF0.18128250981790206
aF0.6528285301881782
aF0.7737895802298212
aF0.2690412147719895
aF0.5144956642604527
aF0.45304581407850264
aF0.7649989959423237
atp996
Rp997
(dp998
g237
g3
(g270
g264
Ntp999
Rp1000
(dp1001
g274
(g275
(g19
S'\xd6\xe4\xc0\x89\x03I\xb0?'
p1002
tp1003
Rp1004
g275
(g19
S'\x19\xc0\x82*\xe4Q\x8a\xbe'
p1005
tp1006
Rp1007
tp1008
sbsbag3
(g305
g5
(lp1009
F0.37196643994204925
aF0.5251944739889904
aF0.4788753000458973
aF0.7280456593855987
aF0.9798676678811296
aF0.8031816417222576
aF0.1786730195177918
aF0.7612278144045045
aF0.32618901837752423
aF0.9671477913926578
aF0.31916834676125483
aF0.07732212831197494
atp1010
Rp1011
(dp1012
g237
g3
(g270
g264
Ntp1013
Rp1014
(dp1015
g274
(g275
(g19
S'\xb2#+4\x9dR\xcf?'
p1016
tp1017
Rp1018
g275
(g19
S' \xdaI\x16Q\x90\x92\xbe'
p1019
tp1020
Rp1021
tp1022
sbsbag3
(g305
g5
(lp1023
F0.48815546010538646
aF0.5234018211236122
aF0.7122895399756032
aF0.7079266519951398
aF0.9581691163694691
aF0.8426918947686232
aF0.8724196515306983
aF0.029342282511969353
aF0.8375145455279149
aF0.6823558487617621
aF0.6000422898816217
aF0.2994298864130306
atp1024
Rp1025
(dp1026
g237
g3
(g270
g264
Ntp1027
Rp1028
(dp1029
g274
(g275
(g19
S'\x02G?>a\xfd\xcb?'
p1030
tp1031
Rp1032
g275
(g19
S'\n\xba0\x17E\xbf\xa5\xbe'
p1033
tp1034
Rp1035
tp1036
sbsbag3
(g305
g5
(lp1037
F0.1406531383765086
aF0.9786610435297884
aF0.9065547400269803
aF0.03422233166024302
aF0.3711736953641567
aF0.25056573462130394
aF0.5950130295777142
aF0.4937598106459996
aF0.9064396916023976
aF0.33344446491154145
aF0.2273921649330699
aF0.5087648236829694
atp1038
Rp1039
(dp1040
g237
g3
(g270
g264
Ntp1041
Rp1042
(dp1043
g274
(g275
(g19
S'-wN3\xd4Y\xc3?'
p1044
tp1045
Rp1046
g275
(g19
S'xK,\xec\x8d\x95\xad\xbe'
p1047
tp1048
Rp1049
tp1050
sbsbag3
(g305
g5
(lp1051
F0.7228992167478911
aF0.6361112990976432
aF0.854681095759177
aF0.018880932559840247
aF0.2995428052790109
aF0.46596828621989084
aF0.2735613288028823
aF0.7538749329294621
aF0.9715813089497368
aF0.29476642602006
aF0.04561712365873294
aF0.7843006358617352
atp1052
Rp1053
(dp1054
g237
g3
(g270
g264
Ntp1055
Rp1056
(dp1057
g274
(g275
(g19
S'\xb6`\x8dO\xd5\x11\xb5?'
p1058
tp1059
Rp1060
g275
(g19
S'D\xe2\x95\xe5]\xbb\x9d\xbe'
p1061
tp1062
Rp1063
tp1064
sbsbag3
(g305
g5
(lp1065
F0.4346731075406238
aF0.7443721090918236
aF0.8365852720604343
aF0.18510076607614157
aF0.9038604724068577
aF0.07864537576798536
aF0.4430051680354252
aF0.39744077759465557
aF0.13678171008753448
aF0.010064171473527894
aF0.7039009079773141
aF0.7579406676917557
atp1066
Rp1067
(dp1068
g237
g3
(g270
g264
Ntp1069
Rp1070
(dp1071
g274
(g275
(g19
S'h\r\xecrH\t\xaa?'
p1072
tp1073
Rp1074
g275
(g19
S'iHCG\xed.\x83\xbe'
p1075
tp1076
Rp1077
tp1078
sbsbag3
(g305
g5
(lp1079
F0.24918546473019543
aF0.05163355944825865
aF0.5370013878257972
aF0.5865439192259516
aF0.9092873628586676
aF0.9280615477572177
aF0.22914223385528043
aF0.05198358745371212
aF0.9555122785651449
aF0.03183405894922153
aF0.8061878984373599
aF0.3059722003061569
atp1080
Rp1081
(dp1082
g237
g3
(g270
g264
Ntp1083
Rp1084
(dp1085
g274
g292
sbsbag3
(g305
g5
(lp1086
F0.6140642589598881
aF0.9483798213840615
aF0.5872845925621463
aF0.23270930375921772
aF0.07019353229451875
aF0.13853240343614825
aF0.6752979910686912
aF0.6684804166239977
aF0.8271474082608812
aF0.3295988723659734
aF0.872708441296488
aF0.2560826173054299
atp1087
Rp1088
(dp1089
g237
g3
(g270
g264
Ntp1090
Rp1091
(dp1092
g274
(g275
(g19
S'}Z~\xcd\xea\xaf\xce?'
p1093
tp1094
Rp1095
g275
(g19
S'\x0b\x99\xe6\xad\xf9\xd6\xae\xbe'
p1096
tp1097
Rp1098
tp1099
sbsbag3
(g305
g5
(lp1100
F0.6153508258204483
aF0.7145352462540179
aF0.01549469035937534
aF0.6731187768758369
aF0.8571908651620515
aF0.943815723074835
aF0.4049340348867464
aF0.8574020717714989
aF0.6438666032667446
aF0.20528643239486033
aF0.5398410038532847
aF0.33069945842702675
atp1101
Rp1102
(dp1103
g237
g3
(g270
g264
Ntp1104
Rp1105
(dp1106
g274
(g275
(g19
S':n\\\x88\xaaK\xd2?'
p1107
tp1108
Rp1109
g275
(g19
S'\xf1\xc6\x8d\xbeM\x99\xa8\xbe'
p1110
tp1111
Rp1112
tp1113
sbsbag3
(g305
g5
(lp1114
F0.5213708284764248
aF0.8617955042686747
aF0.21622525427835626
aF0.8915016848932352
aF0.8834097635216521
aF0.9086672097136166
aF0.6913311341614332
aF0.6998268394084803
aF0.14956834288545562
aF0.8443357913315089
aF0.3980396143742563
aF0.9107048661264697
atp1115
Rp1116
(dp1117
g237
g3
(g270
g264
Ntp1118
Rp1119
(dp1120
g274
(g275
(g19
S'\nv4/\xf1q\xaa?'
p1121
tp1122
Rp1123
g275
(g19
S'\xc8\xedU\xd6\xab\xea~\xbe'
p1124
tp1125
Rp1126
tp1127
sbsbag3
(g305
g5
(lp1128
F0.6579820569747172
aF0.14510483185253498
aF0.6292046196437572
aF0.7345557504852317
aF0.43179894128368124
aF0.8810542357293347
aF0.27543703966078326
aF0.6500322666671083
aF0.41055281389881537
aF0.5064450743336961
aF0.44751845282738867
aF0.03447515489693542
atp1129
Rp1130
(dp1131
g237
g3
(g270
g264
Ntp1132
Rp1133
(dp1134
g274
(g275
(g19
S'@\xbc\x0b\xa5\x143\xcf?'
p1135
tp1136
Rp1137
g275
(g19
S'69\xff\xdd\xf2\x19\xb1\xbe'
p1138
tp1139
Rp1140
tp1141
sbsbag3
(g305
g5
(lp1142
F0.6579820569747172
aF0.14510483185253498
aF0.6292046196437572
aF0.7345557504852317
aF0.38755589524239575
aF0.07479146662476255
aF0.10172061868103477
aF0.42803308789616257
aF0.04938875465351622
aF0.4702338667954342
aF0.3497197112065128
aF0.21964668223676087
atp1143
Rp1144
(dp1145
g237
g3
(g270
g264
Ntp1146
Rp1147
(dp1148
g274
(g275
(g19
S' ~xt\x8bV\xd0?'
p1149
tp1150
Rp1151
g275
(g19
S'\xa4\x08\n\x83g$\xbc\xbe'
p1152
tp1153
Rp1154
tp1155
sbsbag3
(g305
g5
(lp1156
F0.2691094858100369
aF0.13435987678362626
aF0.849198120368014
aF0.8971530123986611
aF0.8571908651620515
aF0.943815723074835
aF0.4049340348867464
aF0.8574020717714989
aF0.6438666032667446
aF0.20528643239486033
aF0.5398410038532847
aF0.33069945842702675
atp1157
Rp1158
(dp1159
g237
g3
(g270
g264
Ntp1160
Rp1161
(dp1162
g274
(g275
(g19
S'j\xe2+I\x01\xab\xd2?'
p1163
tp1164
Rp1165
g275
(g19
S'\xfb\x9f\xc3\x81&\x0c\xb7\xbe'
p1166
tp1167
Rp1168
tp1169
sbsbag3
(g305
g5
(lp1170
F0.4888291521173287
aF0.7119949195203208
aF0.4252866078023336
aF0.40434291395353816
aF0.5501580638275974
aF0.364973401289718
aF0.6019171244175029
aF0.0515830052684656
aF0.394358657851679
aF0.8367881949142338
aF0.7933276178157025
aF0.4762504835267152
atp1171
Rp1172
(dp1173
g237
g3
(g270
g264
Ntp1174
Rp1175
(dp1176
g274
(g275
(g19
S'\xdf\x14\x87\x04\x9a\xef\xc4?'
p1177
tp1178
Rp1179
g275
(g19
S'y\xe0\x85\xaa\xc4\xb4\x95\xbe'
p1180
tp1181
Rp1182
tp1183
sbsbag3
(g305
g5
(lp1184
F0.3917726245005744
aF0.018238833432312473
aF0.06931826443882871
aF0.9601751299214835
aF0.4531083339780627
aF0.23221425487972447
aF0.15332415483552697
aF0.2815553656488736
aF0.04918913484266252
aF0.9448121344424785
aF0.8228172071826297
aF0.018064307748204333
atp1185
Rp1186
(dp1187
g237
g3
(g270
g264
Ntp1188
Rp1189
(dp1190
g274
(g275
(g19
S'\x1a\xcd\xc8\x1c\x80\xe7\xcf?'
p1191
tp1192
Rp1193
g275
(g19
S'\x8a\x14q\x04*\xa8s\xbe'
p1194
tp1195
Rp1196
tp1197
sbsbag3
(g305
g5
(lp1198
F0.8192021933864183
aF0.195966031659787
aF0.1264220896447441
aF0.7345557504852317
aF0.8571908651620515
aF0.943815723074835
aF0.4049340348867464
aF0.8574020717714989
aF0.6438666032667446
aF0.20528643239486033
aF0.5398410038532847
aF0.33069945842702675
atp1199
Rp1200
(dp1201
g237
g3
(g270
g264
Ntp1202
Rp1203
(dp1204
g274
(g275
(g19
S'Av\xf0ND\xd4\xd2?'
p1205
tp1206
Rp1207
g275
(g19
S'pI\xa9\x1c\x13\x86\xb2\xbe'
p1208
tp1209
Rp1210
tp1211
sbsbag3
(g305
g5
(lp1212
F0.6579820569747172
aF0.14510483185253498
aF0.6292046196437572
aF0.10674394583132119
aF0.8420008555316775
aF0.23776731622132952
aF0.6222038668014146
aF0.2815553656488736
aF0.04918913484266252
aF0.9448121344424785
aF0.8228172071826297
aF0.018064307748204333
atp1213
Rp1214
(dp1215
g237
g3
(g270
g264
Ntp1216
Rp1217
(dp1218
g274
(g275
(g19
S'N\x93\x8eW\xba\xbd\xcf?'
p1219
tp1220
Rp1221
g275
(g19
S'\xba\xb7?\xd2\xc78\x83\xbe'
p1222
tp1223
Rp1224
tp1225
sbsbag3
(g305
g5
(lp1226
F0.41853433983697486
aF0.14510483185253498
aF0.3767799034210847
aF0.7345557504852317
aF0.8571908651620515
aF0.943815723074835
aF0.4049340348867464
aF0.8574020717714989
aF0.6438666032667446
aF0.20528643239486033
aF0.8228172071826297
aF0.018064307748204333
atp1227
Rp1228
(dp1229
g237
g3
(g270
g264
Ntp1230
Rp1231
(dp1232
g274
(g275
(g19
S"\xfazX\x88\xf6'\xcf?"
p1233
tp1234
Rp1235
g275
(g19
S'\x0f\x95\x19%\xd6\xd9\xa4\xbe'
p1236
tp1237
Rp1238
tp1239
sbsbag3
(g305
g5
(lp1240
F0.8858374881980622
aF0.6772313355599021
aF0.032906416177459485
aF0.2678886684910191
aF0.2856410218700728
aF0.4889777445315301
aF0.5205010255852944
aF0.5302698616615392
aF0.3880505708720726
aF0.523745615336321
aF0.5219310257627159
aF0.8818304096146464
atp1241
Rp1242
(dp1243
g237
g3
(g270
g264
Ntp1244
Rp1245
(dp1246
g274
(g275
(g19
S'R\x0fH\xb1aH\xae?'
p1247
tp1248
Rp1249
g275
(g19
S'\x15\x02\xb0y\xa6.\x8e\xbe'
p1250
tp1251
Rp1252
tp1253
sbsbag3
(g305
g5
(lp1254
F0.1209686949139267
aF0.6105212523172711
aF0.4897881343059377
aF0.43225001200065993
aF0.3011150180367097
aF0.939451072888627
aF0.1262478860863504
aF0.11503859149024775
aF0.49359157754862537
aF0.6804594727876263
aF0.5848009675791417
aF0.3746579992246064
atp1255
Rp1256
(dp1257
g237
g3
(g270
g264
Ntp1258
Rp1259
(dp1260
g274
(g275
(g19
S'\xbb|uy%:\xcd?'
p1261
tp1262
Rp1263
g275
(g19
S'\x99\xeb\xac\x8d\xd2\xaf\xad\xbe'
p1264
tp1265
Rp1266
tp1267
sbsbag3
(g305
g5
(lp1268
F0.2268901766080288
aF0.35342856154664026
aF0.09169620896540054
aF0.4082701818077842
aF0.09123332736655054
aF0.4154068983362762
aF0.0757479382766798
aF0.41779926404958745
aF0.4003337430707704
aF0.7334188917068227
aF0.35428973837525746
aF0.34766767644599106
atp1269
Rp1270
(dp1271
g237
g3
(g270
g264
Ntp1272
Rp1273
(dp1274
g274
(g275
(g19
S'0\xd8\x11$4\xe6\xcb?'
p1275
tp1276
Rp1277
g275
(g19
S'\xd8*\x94\x94\x94+\x9c\xbe'
p1278
tp1279
Rp1280
tp1281
sbsbag3
(g305
g5
(lp1282
F0.8192021933864183
aF0.195966031659787
aF0.1264220896447441
aF0.10674394583132119
aF0.8420008555316775
aF0.23776731622132952
aF0.6222038668014146
aF0.2815553656488736
aF0.04918913484266252
aF0.9448121344424785
aF0.7349440483781373
aF0.33069945842702675
atp1283
Rp1284
(dp1285
g237
g3
(g270
g264
Ntp1286
Rp1287
(dp1288
g274
(g275
(g19
S'\xadO\xc0%\x1d\x1d\xc9?'
p1289
tp1290
Rp1291
g275
(g19
S'\xe9\xbb\xe8P;\x7f\x9b\xbe'
p1292
tp1293
Rp1294
tp1295
sbsbag3
(g305
g5
(lp1296
F0.3254897952456919
aF0.5810634610908675
aF0.23745137427566632
aF0.4227619188642655
aF0.4897791199800592
aF0.895735303512076
aF0.05461584425478072
aF0.2867853068733678
aF0.4987225612750351
aF0.6004584867068549
aF0.24655925259515243
aF0.003779380145458422
atp1297
Rp1298
(dp1299
g237
g3
(g270
g264
Ntp1300
Rp1301
(dp1302
g274
(g275
(g19
S'\x16\x94)*\xd1\x90\xcf?'
p1303
tp1304
Rp1305
g275
(g19
S'\x02\x1d\x13\x99\x88k\xbc\xbe'
p1306
tp1307
Rp1308
tp1309
sbsbag3
(g305
g5
(lp1310
F0.40883988425570095
aF0.20784805918014904
aF0.5803050383503296
aF0.77454488636805
aF0.29062405097422583
aF0.7662538329435973
aF0.7165231252603392
aF0.7377598525426373
aF0.5572139440300724
aF0.34931562521725534
aF0.5138590989802373
aF0.25447680901610525
atp1311
Rp1312
(dp1313
g237
g3
(g270
g264
Ntp1314
Rp1315
(dp1316
g274
(g275
(g19
S'\xae}4\xea\nJ\xd2?'
p1317
tp1318
Rp1319
g275
(g19
S'ad\xd0^3\xc0\xaa\xbe'
p1320
tp1321
Rp1322
tp1323
sbsbag3
(g305
g5
(lp1324
F0.043196054621844615
aF0.27428707925551776
aF0.5201266429245189
aF0.46433312056891773
aF0.26130338091560723
aF0.7972905784721441
aF0.6226872254223299
aF0.8658719389186399
aF0.26222311889327277
aF0.1437684452658119
aF0.6737762477276428
aF0.8977798575426248
atp1325
Rp1326
(dp1327
g237
g3
(g270
g264
Ntp1328
Rp1329
(dp1330
g274
(g275
(g19
S'+\xf5\x0e\x13\xe9?\xad?'
p1331
tp1332
Rp1333
g275
(g19
S'\xdb\xadgo\x18\xb1\x88\xbe'
p1334
tp1335
Rp1336
tp1337
sbsbag3
(g305
g5
(lp1338
F0.2897492584301927
aF0.9471856353216308
aF0.9027703214437398
aF0.646636104729802
aF0.7610923464072505
aF0.939497910681081
aF0.9247312802762749
aF0.49398524798062915
aF0.4938160554038259
aF0.0618857971818475
aF0.8703727132110449
aF0.6046465864357192
atp1339
Rp1340
(dp1341
g237
g3
(g270
g264
Ntp1342
Rp1343
(dp1344
g274
(g275
(g19
S'\x11\x90\xda\xa3\xc8\xa0\xc3?'
p1345
tp1346
Rp1347
g275
(g19
S'\x9b\xdf*^D\xd1\xa5\xbe'
p1348
tp1349
Rp1350
tp1351
sbsbag3
(g305
g5
(lp1352
F0.3502934983899064
aF0.4390710759876887
aF0.033468552484269276
aF0.8108223358453593
aF0.5931439548043965
aF0.01565740346207911
aF0.7391578474619065
aF0.43792317323521845
aF0.2952475785480225
aF0.8126216261408384
aF0.14099666016080759
aF0.8511619649726944
atp1353
Rp1354
(dp1355
g237
g3
(g270
g264
Ntp1356
Rp1357
(dp1358
g274
(g275
(g19
S't-\xf89\x80N\xa0?'
p1359
tp1360
Rp1361
g275
(g19
S'W\xdc\xa2\xd2u8o\xbe'
p1362
tp1363
Rp1364
tp1365
sbsbag3
(g305
g5
(lp1366
F0.6611413315573136
aF0.03828999250874121
aF0.41329428459089246
aF0.9418188163701576
aF0.2039512517576484
aF0.2912410552384028
aF0.9517276152754408
aF0.27322303921920676
aF0.15787122643086715
aF0.05256882984160971
aF0.2218382860285899
aF0.4946324908311859
atp1367
Rp1368
(dp1369
g237
g3
(g270
g264
Ntp1370
Rp1371
(dp1372
g274
(g275
(g19
S'\xbb\x81\xae\xa6\xb3~\xc3?'
p1373
tp1374
Rp1375
g275
(g19
S'\xa4\x84N\x16(\xfd\xa0\xbe'
p1376
tp1377
Rp1378
tp1379
sbsbag3
(g305
g5
(lp1380
F0.3851057683692074
aF0.3668391240770036
aF0.3475230542761618
aF0.11903891704288716
aF0.037540925973207906
aF0.9257833819297999
aF0.835664143129796
aF0.020627112407861747
aF0.9155585780088041
aF0.7890099878049762
aF0.35257176585161765
aF0.5711361415499028
atp1381
Rp1382
(dp1383
g237
g3
(g270
g264
Ntp1384
Rp1385
(dp1386
g274
(g275
(g19
S'\x80\x13\xf6\xe3\xaaq\xc6?'
p1387
tp1388
Rp1389
g275
(g19
S'\xb3\xfc\xdfK\xb5\xdc\xaa\xbe'
p1390
tp1391
Rp1392
tp1393
sbsbag3
(g305
g5
(lp1394
F0.05056201340164157
aF0.8098888141133982
aF0.5362270631637487
aF0.7258365441102432
aF0.1583200580207309
aF0.9026865743555984
aF0.31285855836166243
aF0.1284149856240372
aF0.11837143801225092
aF0.031001335316443335
aF0.6949097091513368
aF0.18411703392713663
atp1395
Rp1396
(dp1397
g237
g3
(g270
g264
Ntp1398
Rp1399
(dp1400
g274
(g275
(g19
S'\xa4.\x1b{\xf2\xfb\xd1?'
p1401
tp1402
Rp1403
g275
(g19
S'\x17_\x02\n\xc2n\xb2\xbe'
p1404
tp1405
Rp1406
tp1407
sbsbag3
(g305
g5
(lp1408
F0.41853433983697486
aF0.14510483185253498
aF0.3767799034210847
aF0.7345557504852317
aF0.8571908651620515
aF0.943815723074835
aF0.4049340348867464
aF0.8574020717714989
aF0.6438666032667446
aF0.20528643239486033
aF0.7349440483781373
aF0.018064307748204333
atp1409
Rp1410
(dp1411
g237
g3
(g270
g264
Ntp1412
Rp1413
(dp1414
g274
(g275
(g19
S'\x0b\xbb\xe6 \xcb\xf8\xcd?'
p1415
tp1416
Rp1417
g275
(g19
S'\x98\x81\xe6\x81\x8di\xab\xbe'
p1418
tp1419
Rp1420
tp1421
sbsbag3
(g305
g5
(lp1422
F0.6579820569747172
aF0.14510483185253498
aF0.6292046196437572
aF0.7345557504852317
aF0.8571908651620515
aF0.943815723074835
aF0.4049340348867464
aF0.8574020717714989
aF0.6438666032667446
aF0.20528643239486033
aF0.5398410038532847
aF0.33069945842702675
atp1423
Rp1424
(dp1425
g237
g3
(g270
g264
Ntp1426
Rp1427
(dp1428
g274
(g275
(g19
S'\x14\x81\xcf`\xf3\x14\xd2?'
p1429
tp1430
Rp1431
g275
(g19
S'/=\x9a\x96\xa6\xa6\xb3\xbe'
p1432
tp1433
Rp1434
tp1435
sbsbag3
(g305
g5
(lp1436
F0.4490431118137639
aF0.6744675832595485
aF0.849198120368014
aF0.8971530123986611
aF0.8571908651620515
aF0.9134890535079407
aF0.4049340348867464
aF0.8574020717714989
aF0.41055281389881537
aF0.5064450743336961
aF0.44751845282738867
aF0.03447515489693542
atp1437
Rp1438
(dp1439
g237
g3
(g270
g264
Ntp1440
Rp1441
(dp1442
g274
(g275
(g19
S'\xcb\x90\xa5\x95t4\xce?'
p1443
tp1444
Rp1445
g275
(g19
S'A\xf3w\x93 \xf2\xa7\xbe'
p1446
tp1447
Rp1448
tp1449
sbsbag3
(g305
g5
(lp1450
F0.6153508258204483
aF0.7145352462540179
aF0.01549469035937534
aF0.6731187768758369
aF0.43179894128368124
aF0.8810542357293347
aF0.27543703966078326
aF0.6500322666671083
aF0.6438666032667446
aF0.20528643239486033
aF0.5398410038532847
aF0.33069945842702675
atp1451
Rp1452
(dp1453
g237
g3
(g270
g264
Ntp1454
Rp1455
(dp1456
g274
(g275
(g19
S'\x8f\x1c\xea.[x\xd2?'
p1457
tp1458
Rp1459
g275
(g19
S'\x1b\xbe\xc5<\x0eL\xad\xbe'
p1460
tp1461
Rp1462
tp1463
sbsbag3
(g305
g5
(lp1464
F0.3917726245005744
aF0.018238833432312473
aF0.06931826443882871
aF0.9601751299214835
aF0.4531083339780627
aF0.23221425487972447
aF0.15332415483552697
aF0.2815553656488736
aF0.04918913484266252
aF0.9448121344424785
aF0.8228172071826297
aF0.33069945842702675
atp1465
Rp1466
(dp1467
g237
g3
(g270
g264
Ntp1468
Rp1469
(dp1470
g274
(g275
(g19
S'\x05\xbb\xa0\x13~n\xc9?'
p1471
tp1472
Rp1473
g275
(g19
S'AK\x7f(\x7fB\x98\xbe'
p1474
tp1475
Rp1476
tp1477
sbsbag3
(g305
g5
(lp1478
F0.37196643994204925
aF0.5251944739889904
aF0.4788753000458973
aF0.7345557504852317
aF0.38755589524239575
aF0.07479146662476255
aF0.10172061868103477
aF0.42803308789616257
aF0.04938875465351622
aF0.4702338667954342
aF0.3497197112065128
aF0.21964668223676087
atp1479
Rp1480
(dp1481
g237
g3
(g270
g264
Ntp1482
Rp1483
(dp1484
g274
(g275
(g19
S'\x80x\xf8\xc6\n\xa6\xd0?'
p1485
tp1486
Rp1487
g275
(g19
S'\xa02\xad\xeb\xfd2\xb5\xbe'
p1488
tp1489
Rp1490
tp1491
sbsbag3
(g305
g5
(lp1492
F0.2691094858100369
aF0.13435987678362626
aF0.849198120368014
aF0.8971530123986611
aF0.38755589524239575
aF0.07479146662476255
aF0.10172061868103477
aF0.42803308789616257
aF0.04938875465351622
aF0.4702338667954342
aF0.3497197112065128
aF0.21964668223676087
atp1493
Rp1494
(dp1495
g237
g3
(g270
g264
Ntp1496
Rp1497
(dp1498
g274
(g275
(g19
S'N\x88*9b\xb9\xcf?'
p1499
tp1500
Rp1501
g275
(g19
S'\x1a9\xb9\x80\x9f\xf7\xc3\xbe'
p1502
tp1503
Rp1504
tp1505
sbsbag3
(g305
g5
(lp1506
F0.4345291282651239
aF0.14510483185253498
aF0.6292046196437572
aF0.7280456593855987
aF0.9798676678811296
aF0.8031816417222576
aF0.1786730195177918
aF0.7612278144045045
aF0.32618901837752423
aF0.9671477913926578
aF0.31916834676125483
aF0.07732212831197494
atp1507
Rp1508
(dp1509
g237
g3
(g270
g264
Ntp1510
Rp1511
(dp1512
g274
(g275
(g19
S'*\xecD`\xf9\x81\xcf?'
p1513
tp1514
Rp1515
g275
(g19
S'\xe0\xdf\x14!\x87\x9d\x90\xbe'
p1516
tp1517
Rp1518
tp1519
sbsbag3
(g305
g5
(lp1520
F0.4465068827201516
aF0.780657024278766
aF0.6182418885256321
aF0.10331399066923519
aF0.5719798925417493
aF0.7778348706450702
aF0.18342997224514945
aF0.0952334035361736
aF0.9486221422831985
aF0.3061946835484911
aF0.0110379461245943
aF0.5737962161470831
atp1521
Rp1522
(dp1523
g237
g3
(g270
g264
Ntp1524
Rp1525
(dp1526
g274
(g275
(g19
S"\xf1GA\xaf'\xf0\xc7?"
p1527
tp1528
Rp1529
g275
(g19
S'\x16nf^j\x13\xb4\xbe'
p1530
tp1531
Rp1532
tp1533
sbsbag3
(g305
g5
(lp1534
F0.14590967721774817
aF0.3886968421935816
aF0.33186021020825074
aF0.06271652631797253
aF0.035883568112601405
aF0.9362762967473229
aF0.5692271714628453
aF0.7212574769376059
aF0.3796844804939906
aF0.26699850016939075
aF0.8675003403533894
aF0.8987507079825728
atp1535
Rp1536
(dp1537
g237
g3
(g270
g264
Ntp1538
Rp1539
(dp1540
g274
(g275
(g19
S'S\xe8S<\x19_\xac?'
p1541
tp1542
Rp1543
g275
(g19
S'\xa9\x1e\x90\xed\x9c\xc6\x81\xbe'
p1544
tp1545
Rp1546
tp1547
sbsbag3
(g305
g5
(lp1548
F0.24458371206858476
aF0.018238833432312473
aF0.06931826443882871
aF0.9601751299214835
aF0.4531083339780627
aF0.23221425487972447
aF0.15332415483552697
aF0.2815553656488736
aF0.04918913484266252
aF0.9448121344424785
aF0.8228172071826297
aF0.018064307748204333
atp1549
Rp1550
(dp1551
g237
g3
(g270
g264
Ntp1552
Rp1553
(dp1554
g274
(g275
(g19
S'[\x1ea\x8e\x90\xe9\xcf?'
p1555
tp1556
Rp1557
g275
(g19
S'x\xeb\xf8\x8a\xfa\xb4s\xbe'
p1558
tp1559
Rp1560
tp1561
sbsbag3
(g305
g5
(lp1562
F0.6153508258204483
aF0.7145352462540179
aF0.06931826443882871
aF0.9601751299214835
aF0.4531083339780627
aF0.15532998486162375
aF0.15332415483552697
aF0.2815553656488736
aF0.04918913484266252
aF0.9448121344424785
aF0.8228172071826297
aF0.018064307748204333
atp1563
Rp1564
(dp1565
g237
g3
(g270
g264
Ntp1566
Rp1567
(dp1568
g274
(g275
(g19
S'nX\xae\xcc\x84\\\xcf?'
p1569
tp1570
Rp1571
g275
(g19
S'\xbef\x85\xe8\xb2\xcc\x95\xbe'
p1572
tp1573
Rp1574
tp1575
sbsbag3
(g305
g5
(lp1576
F0.45547942628948657
aF0.5324972634130485
aF0.33341131046123307
aF0.042008383975805974
aF0.20921564869254383
aF0.8066532034051809
aF0.11016279258478712
aF0.1965208195947763
aF0.05198048057265392
aF0.07033242389175987
aF0.6238268415570298
aF0.1323548800536366
atp1577
Rp1578
(dp1579
g237
g3
(g270
g264
Ntp1580
Rp1581
(dp1582
g274
(g275
(g19
S':x\xccbg\x86\xd0?'
p1583
tp1584
Rp1585
g275
(g19
S'\x8a\x1d\x17E5t\xa4\xbe'
p1586
tp1587
Rp1588
tp1589
sbsbag3
(g305
g5
(lp1590
F0.4601229978710555
aF0.16516590954565924
aF0.3858481987424649
aF0.47603968039169975
aF0.13359808215807156
aF0.7469609411375087
aF0.6971931112121327
aF0.542282994162549
aF0.759576055180883
aF0.24923372538526734
aF0.015507148631503043
aF0.8190593761038345
atp1591
Rp1592
(dp1593
g237
g3
(g270
g264
Ntp1594
Rp1595
(dp1596
g274
(g275
(g19
S'\xd0\xe7-\x81\xd0H\xb4?'
p1597
tp1598
Rp1599
g275
(g19
S'F\xb7\x1b]\x92\xca\x99\xbe'
p1600
tp1601
Rp1602
tp1603
sbsbag3
(g305
g5
(lp1604
F0.11235388363826371
aF0.01980712967961562
aF0.4010296182293146
aF0.27591935601507134
aF0.020210279465799896
aF0.024348665898338506
aF0.38270538147309974
aF0.6813512362573738
aF0.557495029772022
aF0.36952843948042824
aF0.54534170734964
aF0.8878817224399187
atp1605
Rp1606
(dp1607
g237
g3
(g270
g264
Ntp1608
Rp1609
(dp1610
g274
(g275
(g19
S'\x8b\x835\xdevL\x9f?'
p1611
tp1612
Rp1613
g275
(g19
S'\x89#\xa2\xa8\xd2~t\xbe'
p1614
tp1615
Rp1616
tp1617
sbsbag3
(g305
g5
(lp1618
F0.7527439395708646
aF0.9787828609767155
aF0.19514694088373286
aF0.5224738871586572
aF0.7728310734594073
aF0.42282004160067055
aF0.7949048200373622
aF0.8321046137389507
aF0.5692232297505715
aF0.14494978459500363
aF0.9370714046852147
aF0.9674763838233442
atp1619
Rp1620
(dp1621
g237
g3
(g270
g264
Ntp1622
Rp1623
(dp1624
g274
(g275
(g19
S'R\xca\xb7\x8d\xbb{\xa4?'
p1625
tp1626
Rp1627
g275
(g19
S'\x96T\xef\xae\x1c\xfey\xbe'
p1628
tp1629
Rp1630
tp1631
sbsbag3
(g305
g5
(lp1632
F0.23122328311403684
aF0.9616271044813473
aF0.48807797489089655
aF0.5951031842027151
aF0.993869357180244
aF0.8816894754379268
aF0.6783573923611141
aF0.10698276693385156
aF0.5968731193837413
aF0.40709080325460933
aF0.8096909408720926
aF0.704151282657303
atp1633
Rp1634
(dp1635
g237
g3
(g270
g264
Ntp1636
Rp1637
(dp1638
g274
(g275
(g19
S'\x166\xdb\x9f\xe6^\xbf?'
p1639
tp1640
Rp1641
g275
(g19
S'|\xdc\xe46\x87\xf0\xa2\xbe'
p1642
tp1643
Rp1644
tp1645
sbsbag3
(g305
g5
(lp1646
F0.6419405016830559
aF0.11401403072583027
aF0.6032508916155301
aF0.48369509512094244
aF0.7511222003379617
aF0.9533879472509146
aF0.8074105968090263
aF0.30334902252230844
aF0.36657667043437614
aF0.4357952826123316
aF0.08863112697092246
aF0.2469174541878405
atp1647
Rp1648
(dp1649
g237
g3
(g270
g264
Ntp1650
Rp1651
(dp1652
g274
(g275
(g19
S'\x0fG\x8c~\xab\xe0\xd1?'
p1653
tp1654
Rp1655
g275
(g19
S'P\xe2\xcc>\xe0\x03\xb7\xbe'
p1656
tp1657
Rp1658
tp1659
sbsbag3
(g305
g5
(lp1660
F0.2691094858100369
aF0.13435987678362626
aF0.849198120368014
aF0.8971530123986611
aF0.38755589524239575
aF0.07479146662476255
aF0.10172061868103477
aF0.42803308789616257
aF0.04938875465351622
aF0.4702338667954342
aF0.3497197112065128
aF0.21964668223676087
atp1661
Rp1662
(dp1663
g237
g3
(g270
g264
Ntp1664
Rp1665
(dp1666
g274
(g275
(g19
S'M\x88*9b\xb9\xcf?'
p1667
tp1668
Rp1669
g275
(g19
S'\x199\xb9\x80\x9f\xf7\xc3\xbe'
p1670
tp1671
Rp1672
tp1673
sbsbag3
(g305
g5
(lp1674
F0.0021303631424001157
aF0.7640250116665032
aF0.3359721928662768
aF0.09001637173776766
aF0.8797498721102082
aF0.9616898012058758
aF0.29679496586647125
aF0.6088811762782317
aF0.4515841189708042
aF0.6979915249351473
aF0.5489852291210675
aF0.2793497930919696
atp1675
Rp1676
(dp1677
g237
g3
(g270
g264
Ntp1678
Rp1679
(dp1680
g274
(g275
(g19
S'\xe6q\xdf\xc4\xdf\xf8\xcc?'
p1681
tp1682
Rp1683
g275
(g19
S',\xa7a\xd5I\xc6\xa8\xbe'
p1684
tp1685
Rp1686
tp1687
sbsbag3
(g305
g5
(lp1688
F0.6579820569747172
aF0.14510483185253498
aF0.6292046196437572
aF0.10674394583132119
aF0.8420008555316775
aF0.23776731622132952
aF0.6222038668014146
aF0.2815553656488736
aF0.04918913484266252
aF0.20528643239486033
aF0.5398410038532847
aF0.33069945842702675
atp1689
Rp1690
(dp1691
g237
g3
(g270
g264
Ntp1692
Rp1693
(dp1694
g274
(g275
(g19
S'\xb5\xb1\xdf\xf0\xf8`\xcb?'
p1695
tp1696
Rp1697
g275
(g19
S'\x9ds\x0e\x90\x9c\xfa\xb1\xbe'
p1698
tp1699
Rp1700
tp1701
sbsbag3
(g305
g5
(lp1702
F0.6153508258204483
aF0.7145352462540179
aF0.06931826443882871
aF0.9601751299214835
aF0.4531083339780627
aF0.15532998486162375
aF0.15332415483552697
aF0.2815553656488736
aF0.04918913484266252
aF0.9448121344424785
aF0.8228172071826297
aF0.018064307748204333
atp1703
Rp1704
(dp1705
g237
g3
(g270
g264
Ntp1706
Rp1707
(dp1708
g274
(g275
(g19
S'nX\xae\xcc\x84\\\xcf?'
p1709
tp1710
Rp1711
g275
(g19
S'\xbef\x85\xe8\xb2\xcc\x95\xbe'
p1712
tp1713
Rp1714
tp1715
sbsbag3
(g305
g5
(lp1716
F0.24918546473019543
aF0.05163355944825865
aF0.5370013878257972
aF0.5865439192259516
aF0.9092873628586676
aF0.9280615477572177
aF0.22914223385528043
aF0.8574020717714989
aF0.6438666032667446
aF0.20528643239486033
aF0.7349440483781373
aF0.33069945842702675
atp1717
Rp1718
(dp1719
g237
g3
(g270
g264
Ntp1720
Rp1721
(dp1722
g274
(g275
(g19
S'\xdf\x9f\xec\xbc\xd8\xa6\xd1?'
p1723
tp1724
Rp1725
g275
(g19
S'1(\xee\xe2J\xd7\xa7\xbe'
p1726
tp1727
Rp1728
tp1729
sbsbag3
(g305
g5
(lp1730
F0.3917726245005744
aF0.018238833432312473
aF0.06931826443882871
aF0.9601751299214835
aF0.4531083339780627
aF0.23221425487972447
aF0.15332415483552697
aF0.2815553656488736
aF0.04918913484266252
aF0.9448121344424785
aF0.8228172071826297
aF0.018064307748204333
atp1731
Rp1732
(dp1733
g237
g3
(g270
g264
Ntp1734
Rp1735
(dp1736
g274
(g275
(g19
S'\x1b\xcd\xc8\x1c\x80\xe7\xcf?'
p1737
tp1738
Rp1739
g275
(g19
S'\x89\x14q\x04*\xa8s\xbe'
p1740
tp1741
Rp1742
tp1743
sbsbag3
(g305
g5
(lp1744
F0.6579820569747172
aF0.14510483185253498
aF0.6292046196437572
aF0.7345557504852317
aF0.8571908651620515
aF0.943815723074835
aF0.4049340348867464
aF0.8574020717714989
aF0.6438666032667446
aF0.9448121344424785
aF0.8228172071826297
aF0.018064307748204333
atp1745
Rp1746
(dp1747
g237
g3
(g270
g264
Ntp1748
Rp1749
(dp1750
g274
(g275
(g19
S'M/A?7\xfd\xcf?'
p1751
tp1752
Rp1753
g275
(g19
S'\x1f\xfd\xff\xf9w\x01R\xbe'
p1754
tp1755
Rp1756
tp1757
sbsbag3
(g305
g5
(lp1758
F0.540985975748953
aF0.3637971949673625
aF0.01549469035937534
aF0.6731187768758369
aF0.43179894128368124
aF0.8810542357293347
aF0.27543703966078326
aF0.6500322666671083
aF0.41055281389881537
aF0.5064450743336961
aF0.44751845282738867
aF0.03447515489693542
atp1759
Rp1760
(dp1761
g237
g3
(g270
g264
Ntp1762
Rp1763
(dp1764
g274
(g275
(g19
S'\x82\xa0\xbd\xcd\x19\x1b\xd0?'
p1765
tp1766
Rp1767
g275
(g19
S'\xfd>\x97BCG\xa5\xbe'
p1768
tp1769
Rp1770
tp1771
sbsbag3
(g305
g5
(lp1772
F0.3917726245005744
aF0.14510483185253498
aF0.3767799034210847
aF0.7345557504852317
aF0.8571908651620515
aF0.943815723074835
aF0.4049340348867464
aF0.05198358745371212
aF0.9555122785651449
aF0.03183405894922153
aF0.8061878984373599
aF0.3059722003061569
atp1773
Rp1774
(dp1775
g237
g3
(g270
g264
Ntp1776
Rp1777
(dp1778
g274
(g275
(g19
S'a\xdaY\xea\x02\xa1\xd3?'
p1779
tp1780
Rp1781
g275
(g19
S"\xa8J'\x9a\x89/\xbb\xbe"
p1782
tp1783
Rp1784
tp1785
sbsbag3
(g305
g5
(lp1786
F0.6153508258204483
aF0.7145352462540179
aF0.6890625195508865
aF0.5612990096267667
aF0.37579836327417715
aF0.7626027472393077
aF0.3719158983783949
aF0.5455328810712349
aF0.6039635272423522
aF0.10934474365545066
aF0.32503628245807525
aF0.2046139603865853
atp1787
Rp1788
(dp1789
g237
g3
(g270
g264
Ntp1790
Rp1791
(dp1792
g274
(g275
(g19
S'\xdd\xb5\xd5\xa0q@\xd3?'
p1793
tp1794
Rp1795
g275
(g19
S',\x05\xc6\xc3\x15\x98\xaa\xbe'
p1796
tp1797
Rp1798
tp1799
sbsbag3
(g305
g5
(lp1800
F0.4251215427677236
aF0.48411128480554144
aF0.8419358300210129
aF0.41282897577563427
aF0.5909670191242963
aF0.21451803763532196
aF0.3695324940084872
aF0.8560116372392158
aF0.46184056902471904
aF0.30785491873293647
aF0.3081484062316254
aF0.27169845991698327
atp1801
Rp1802
(dp1803
g237
g3
(g270
g264
Ntp1804
Rp1805
(dp1806
g274
(g275
(g19
S'~\x16\\\xb0H\x19\xcf?'
p1807
tp1808
Rp1809
g275
(g19
S'4\xa5?\xf661\xb5\xbe'
p1810
tp1811
Rp1812
tp1813
sbsbag3
(g305
g5
(lp1814
F0.9792351771560815
aF0.18550220878890777
aF0.6560196068609887
aF0.8187642818760997
aF0.7339559915877631
aF0.5285830106723681
aF0.16228294915360142
aF0.1355087876093768
aF0.9539950930768574
aF0.5521593653978838
aF0.7002291754356311
aF0.26414556739004935
atp1815
Rp1816
(dp1817
g237
g3
(g270
g264
Ntp1818
Rp1819
(dp1820
g274
(g275
(g19
S'\xee\x8cy!\xd1\xa1\xcb?'
p1821
tp1822
Rp1823
g275
(g19
S'u\xadJ\xd2w\xa1\xb5\xbe'
p1824
tp1825
Rp1826
tp1827
sbsbag3
(g305
g5
(lp1828
F0.4113191322498243
aF0.46832765400004117
aF0.7708490616281631
aF0.015873929120427732
aF0.3519352904990938
aF0.8023808258203122
aF0.9292379797454984
aF0.5537330641156468
aF0.10207428666845997
aF0.1347162373247639
aF0.6313059878474951
aF0.8677042436837872
atp1829
Rp1830
(dp1831
g237
g3
(g270
g264
Ntp1832
Rp1833
(dp1834
g274
(g275
(g19
S'\xcd\xf5\x1e\x91\xefy\xaf?'
p1835
tp1836
Rp1837
g275
(g19
S'\xff\xfbq\xa8\xb2\xac\x86\xbe'
p1838
tp1839
Rp1840
tp1841
sbsbag3
(g305
g5
(lp1842
F0.11624862608523656
aF0.12722555215388953
aF0.493691417515992
aF0.945318719862763
aF0.6379856810579086
aF0.8835117843826764
aF0.9354507862876309
aF0.235425031670779
aF0.9611030299515089
aF0.3757709525662164
aF0.23228446049217233
aF0.7910648623041441
atp1843
Rp1844
(dp1845
g237
g3
(g270
g264
Ntp1846
Rp1847
(dp1848
g274
(g275
(g19
S'F\xfd\x15\x96\xa2\x9a\xb6?'
p1849
tp1850
Rp1851
g275
(g19
S'\xa0Bhy\xdc\n\xa0\xbe'
p1852
tp1853
Rp1854
tp1855
sbsbag3
(g305
g5
(lp1856
F0.11169614076594758
aF0.013540013038175314
aF0.46441385689246806
aF0.5190397382701072
aF0.7879412819193553
aF0.7027657313029084
aF0.9368756486262205
aF0.27468185095472863
aF0.5529531426170025
aF0.3371212613197464
aF0.7149752681103091
aF0.40014171273367904
atp1857
Rp1858
(dp1859
g237
g3
(g270
g264
Ntp1860
Rp1861
(dp1862
g274
(g275
(g19
S'\xa6\x93h\x1a\x1b\x11\xcf?'
p1863
tp1864
Rp1865
g275
(g19
S'\xf1x:\xdf&\x06\xb8\xbe'
p1866
tp1867
Rp1868
tp1869
sbsbag3
(g305
g5
(lp1870
F0.5098149540391294
aF0.43406970071124584
aF0.6788025029567547
aF0.04908806679632083
aF0.5445270629292958
aF0.4520738876724747
aF0.11773846908532148
aF0.16150700459200917
aF0.98133668805186
aF0.3805997554651054
aF0.5056305981696083
aF0.07691484964039841
atp1871
Rp1872
(dp1873
g237
g3
(g270
g264
Ntp1874
Rp1875
(dp1876
g274
(g275
(g19
S'Ee\xc7U\x05T\xd2?'
p1877
tp1878
Rp1879
g275
(g19
S'\xb4\xca\xa3\x92\x9aV\xb1\xbe'
p1880
tp1881
Rp1882
tp1883
sbsbag3
(g305
g5
(lp1884
F0.16092543555550776
aF0.6996986108421442
aF0.09774255012865629
aF0.1793406182675893
aF0.3765936077755222
aF0.5858505199000396
aF0.6007374939904374
aF0.1028760800662828
aF0.5297638596268901
aF0.7442429223407633
aF0.6015471074708284
aF0.24898659011413682
atp1885
Rp1886
(dp1887
g237
g3
(g270
g264
Ntp1888
Rp1889
(dp1890
g274
(g275
(g19
S'\xd2fE\x86\xa9\xba\xc9?'
p1891
tp1892
Rp1893
g275
(g19
S'ud,\xb1|\xb7\xa7\xbe'
p1894
tp1895
Rp1896
tp1897
sbsbag3
(g305
g5
(lp1898
F0.7933422507887653
aF0.5121331157679944
aF0.8332805052991117
aF0.6364529893733565
aF0.35729759457868215
aF0.8424608526529409
aF0.1403828845398415
aF0.6177940133314817
aF0.1256180812633363
aF0.9757041793114651
aF0.9260505240105956
aF0.32299285989257687
atp1899
Rp1900
(dp1901
g237
g3
(g270
g264
Ntp1902
Rp1903
(dp1904
g274
(g275
(g19
S'c\x9e\xfdme\xc9\xcc?'
p1905
tp1906
Rp1907
g275
(g19
S'\x04\x10\x06@\xb2\xf4\x9e\xbe'
p1908
tp1909
Rp1910
tp1911
sbsbag3
(g305
g5
(lp1912
F0.6153508258204483
aF0.7145352462540179
aF0.06931826443882871
aF0.9601751299214835
aF0.4531083339780627
aF0.15532998486162375
aF0.15332415483552697
aF0.8101877499512782
aF0.735053517611345
aF0.9448121344424785
aF0.8228172071826297
aF0.018064307748204333
atp1913
Rp1914
(dp1915
g237
g3
(g270
g264
Ntp1916
Rp1917
(dp1918
g274
(g275
(g19
S'>\x8b/\xf3\xe1\x80\xcf?'
p1919
tp1920
Rp1921
g275
(g19
S'\x9f\x10F\xdb0\xa0\x92\xbe'
p1922
tp1923
Rp1924
tp1925
sbsbag3
(g305
g5
(lp1926
F0.6153508258204483
aF0.7145352462540179
aF0.01549469035937534
aF0.6731187768758369
aF0.43179894128368124
aF0.8810542357293347
aF0.27543703966078326
aF0.6500322666671083
aF0.41055281389881537
aF0.5064450743336961
aF0.44751845282738867
aF0.018064307748204333
atp1927
Rp1928
(dp1929
g237
g3
(g270
g264
Ntp1930
Rp1931
(dp1932
g274
(g275
(g19
S'C\xf1|m\x0f\xbe\xcf?'
p1933
tp1934
Rp1935
g275
(g19
S'`~N\r\x11W\xa1\xbe'
p1936
tp1937
Rp1938
tp1939
sbsbag3
(g305
g5
(lp1940
F0.6153508258204483
aF0.7145352462540179
aF0.06931826443882871
aF0.9601751299214835
aF0.4531083339780627
aF0.15532998486162375
aF0.15332415483552697
aF0.2815553656488736
aF0.04918913484266252
aF0.0848588563269127
aF0.12389198950322655
aF0.24281077713368482
atp1941
Rp1942
(dp1943
g237
g3
(g270
g264
Ntp1944
Rp1945
(dp1946
g274
(g275
(g19
S']\xea\x10n\x89\x90\xce?'
p1947
tp1948
Rp1949
g275
(g19
S'\x91\xd4\xb6\x96\x9e\xce\xc4\xbe'
p1950
tp1951
Rp1952
tp1953
sbsbag3
(g305
g5
(lp1954
F0.3917726245005744
aF0.018238833432312473
aF0.06931826443882871
aF0.9601751299214835
aF0.4531083339780627
aF0.23221425487972447
aF0.15332415483552697
aF0.2815553656488736
aF0.04918913484266252
aF0.5064450743336961
aF0.44751845282738867
aF0.03447515489693542
atp1955
Rp1956
(dp1957
g237
g3
(g270
g264
Ntp1958
Rp1959
(dp1960
g274
(g275
(g19
S'x\x9dJ\xacZi\xd0?'
p1961
tp1962
Rp1963
g275
(g19
S'\xd2\x1b\xe2\x8f\xe6p\xc3\xbe'
p1964
tp1965
Rp1966
tp1967
sbsbag3
(g305
g5
(lp1968
F0.6579820569747172
aF0.14510483185253498
aF0.6292046196437572
aF0.10674394583132119
aF0.8420008555316775
aF0.23776731622132952
aF0.6222038668014146
aF0.2815553656488736
aF0.04918913484266252
aF0.9448121344424785
aF0.8228172071826297
aF0.03447515489693542
atp1969
Rp1970
(dp1971
g237
g3
(g270
g264
Ntp1972
Rp1973
(dp1974
g274
(g275
(g19
S'{\x1b\xc6\x84\xb7\x98\xcf?'
p1975
tp1976
Rp1977
g275
(g19
S'\xeem\x95\xde\x92\x16\x8c\xbe'
p1978
tp1979
Rp1980
tp1981
sbsbag3
(g305
g5
(lp1982
F0.6419405016830559
aF0.11401403072583027
aF0.6032508916155301
aF0.48369509512094244
aF0.7511222003379617
aF0.9533879472509146
aF0.8074105968090263
aF0.1284149856240372
aF0.11837143801225092
aF0.031001335316443335
aF0.6949097091513368
aF0.18411703392713663
atp1983
Rp1984
(dp1985
g237
g3
(g270
g264
Ntp1986
Rp1987
(dp1988
g274
(g275
(g19
S'\xef\xc5<f\xde\xc4\xd0?'
p1989
tp1990
Rp1991
g275
(g19
S'!+5D\xe2\x84\xa6\xbe'
p1992
tp1993
Rp1994
tp1995
sbsbag3
(g305
g5
(lp1996
F0.05056201340164157
aF0.8098888141133982
aF0.5362270631637487
aF0.7258365441102432
aF0.1583200580207309
aF0.9026865743555984
aF0.31285855836166243
aF0.30334902252230844
aF0.36657667043437614
aF0.4357952826123316
aF0.08863112697092246
aF0.2469174541878405
atp1997
Rp1998
(dp1999
g237
g3
(g270
g264
Ntp2000
Rp2001
(dp2002
g274
g302
sbsbag3
(g305
g5
(lp2003
F0.6153508258204483
aF0.7145352462540179
aF0.01549469035937534
aF0.6731187768758369
aF0.8571908651620515
aF0.943815723074835
aF0.4049340348867464
aF0.05198358745371212
aF0.9555122785651449
aF0.03183405894922153
aF0.8061878984373599
aF0.3059722003061569
atp2004
Rp2005
(dp2006
g237
g3
(g270
g264
Ntp2007
Rp2008
(dp2009
g274
g282
sbsbag3
(g305
g5
(lp2010
F0.3917726245005744
aF0.14510483185253498
aF0.3767799034210847
aF0.7345557504852317
aF0.8571908651620515
aF0.943815723074835
aF0.4049340348867464
aF0.8574020717714989
aF0.6438666032667446
aF0.20528643239486033
aF0.5398410038532847
aF0.33069945842702675
atp2011
Rp2012
(dp2013
g237
g3
(g270
g264
Ntp2014
Rp2015
(dp2016
g274
(g275
(g19
S'B!\xf9\xf4\xfes\xd2?'
p2017
tp2018
Rp2019
g275
(g19
S'\xc6\xbc\xfe>\xc8\xaf\xb1\xbe'
p2020
tp2021
Rp2022
tp2023
sbsbag3
(g305
g5
(lp2024
F0.2691094858100369
aF0.13435987678362626
aF0.849198120368014
aF0.8971530123986611
aF0.38755589524239575
aF0.07479146662476255
aF0.10172061868103477
aF0.30334902252230844
aF0.36657667043437614
aF0.4357952826123316
aF0.08863112697092246
aF0.2469174541878405
atp2025
Rp2026
(dp2027
g237
g3
(g270
g264
Ntp2028
Rp2029
(dp2030
g274
(g275
(g19
S'\xda\x90\xc9\xdf\x9e\xe6\xcf?'
p2031
tp2032
Rp2033
g275
(g19
S'qU#>\x9c\xdb\xbd\xbe'
p2034
tp2035
Rp2036
tp2037
sbsbag3
(g305
g5
(lp2038
F0.6419405016830559
aF0.11401403072583027
aF0.6032508916155301
aF0.48369509512094244
aF0.7511222003379617
aF0.9533879472509146
aF0.8074105968090263
aF0.42803308789616257
aF0.04938875465351622
aF0.4702338667954342
aF0.3497197112065128
aF0.21964668223676087
atp2039
Rp2040
(dp2041
g237
g3
(g270
g264
Ntp2042
Rp2043
(dp2044
g274
(g275
(g19
S't\xce\x1d\xa3\x87.\xd1?'
p2045
tp2046
Rp2047
g275
(g19
S'\xf1E\x18\xd4\xd5\xa5\xb2\xbe'
p2048
tp2049
Rp2050
tp2051
sbsbag3
(g305
g5
(lp2052
F0.4490431118137639
aF0.6744675832595485
aF0.849198120368014
aF0.8971530123986611
aF0.8571908651620515
aF0.9134890535079407
aF0.4049340348867464
aF0.8574020717714989
aF0.41055281389881537
aF0.9448121344424785
aF0.8228172071826297
aF0.018064307748204333
atp2053
Rp2054
(dp2055
g237
g3
(g270
g264
Ntp2056
Rp2057
(dp2058
g274
(g275
(g19
S'\xfa^\x8e\xe37\xf9\xcf?'
p2059
tp2060
Rp2061
g275
(g19
S'\x93Ca[\xd7\xbco\xbe'
p2062
tp2063
Rp2064
tp2065
sbsbag3
(g305
g5
(lp2066
F0.5532918033525818
aF0.005658618494226664
aF0.12185611354590598
aF0.6833437899063586
aF0.285793262248234
aF0.8066692723466523
aF0.7296782191040818
aF0.4003954988185041
aF0.009801554274241453
aF0.8015421168277187
aF0.0661486246225077
aF0.147590344537182
atp2067
Rp2068
(dp2069
g237
g3
(g270
g264
Ntp2070
Rp2071
(dp2072
g274
(g275
(g19
S'\x08\xcf/\x01\xdd\xa5\xca?'
p2073
tp2074
Rp2075
g275
(g19
S'\xac\x9e\xbf\xccAV\xbc\xbe'
p2076
tp2077
Rp2078
tp2079
sbsbag3
(g305
g5
(lp2080
F0.4665436143192766
aF0.12806865908839538
aF0.8283636426150438
aF0.44652849609392276
aF0.7329375876165627
aF0.6167780055773091
aF0.2044607890866038
aF0.2148153820762002
aF0.7067884450084493
aF0.40892049276489084
aF0.12865143585399486
aF0.24686179663199292
atp2081
Rp2082
(dp2083
g237
g3
(g270
g264
Ntp2084
Rp2085
(dp2086
g274
(g275
(g19
S'\xe9\xd3L[\xfb6\xd3?'
p2087
tp2088
Rp2089
g275
(g19
S'9\x1a3\x8b\x8f\xc8\xba\xbe'
p2090
tp2091
Rp2092
tp2093
sbsbag3
(g305
g5
(lp2094
F0.9083363201173784
aF0.32602895094326045
aF0.17964250869509724
aF0.007425515827419793
aF0.35745731506011713
aF0.07396875839805961
aF0.40096863554092244
aF0.2258000696291722
aF0.7630653546122977
aF0.4630531096970184
aF0.740580722109523
aF0.4715709465050143
atp2095
Rp2096
(dp2097
g237
g3
(g270
g264
Ntp2098
Rp2099
(dp2100
g274
(g275
(g19
S'q\xf0`;\xe1@\xc1?'
p2101
tp2102
Rp2103
g275
(g19
S'k\x9b&\x0e\xfc\xd4\x9f\xbe'
p2104
tp2105
Rp2106
tp2107
sbsbag3
(g305
g5
(lp2108
F0.7667712821362506
aF0.2955288359003232
aF0.10347624918198495
aF0.9475719341739209
aF0.6742620781651703
aF0.027254875158572833
aF0.379218572624591
aF0.7133435225116498
aF0.7665009921019789
aF0.5591614863832676
aF0.4794901891422447
aF0.07524953755718355
atp2109
Rp2110
(dp2111
g237
g3
(g270
g264
Ntp2112
Rp2113
(dp2114
g274
(g275
(g19
S'\xa0\x924\x00\x9c\xea\xc8?'
p2115
tp2116
Rp2117
g275
(g19
S'\xaf\xbe\xca[\x05J\xbf\xbe'
p2118
tp2119
Rp2120
tp2121
sbsbag3
(g305
g5
(lp2122
F0.39865462904276616
aF0.9491913080414431
aF0.7583754213631588
aF0.540384580681948
aF0.05948297346624554
aF0.8410765251466822
aF0.3724448901718377
aF0.04143611878102915
aF0.4315395246987186
aF0.3553842313178103
aF0.37653833168345807
aF0.5984058424606895
atp2123
Rp2124
(dp2125
g237
g3
(g270
g264
Ntp2126
Rp2127
(dp2128
g274
(g275
(g19
S'\xe6f\xe0\xa7\x9c\xaf\xc5?'
p2129
tp2130
Rp2131
g275
(g19
S'\xf6\xdf\xf3o\xa8z\xb1\xbe'
p2132
tp2133
Rp2134
tp2135
sbsbag3
(g305
g5
(lp2136
F0.05461102657651884
aF0.8484515638742457
aF0.02097275706783941
aF0.6292838334837213
aF0.18329681191095581
aF0.5178062745010031
aF0.20920736952227248
aF0.5088705754570031
aF0.09052216087971476
aF0.4538995408213109
aF0.4405128240098083
aF0.9888422389788947
atp2137
Rp2138
(dp2139
g237
g3
(g270
g264
Ntp2140
Rp2141
(dp2142
g274
(g275
(g19
S'\x9e?<\xcf\xfe0\xa4?'
p2143
tp2144
Rp2145
g275
(g19
S'\xc7^R\x97d\xf1\x85\xbe'
p2146
tp2147
Rp2148
tp2149
sbsbag3
(g305
g5
(lp2150
F0.3648027646060077
aF0.30266557630673485
aF0.9704598263792181
aF0.549144906535865
aF0.7791981669514292
aF0.7970911390162541
aF0.3108502595864825
aF0.02705476037079857
aF0.2165106846332593
aF0.8213420179893048
aF0.9361472610299411
aF0.9643974197279844
atp2151
Rp2152
(dp2153
g237
g3
(g270
g264
Ntp2154
Rp2155
(dp2156
g274
(g275
(g19
S'\x00\xfd\xf7Bu\xf8\xa6?'
p2157
tp2158
Rp2159
g275
(g19
S'\xd1\x83W\x8f\xd2\x12{\xbe'
p2160
tp2161
Rp2162
tp2163
sbsbag3
(g305
g5
(lp2164
F0.24918546473019543
aF0.05163355944825865
aF0.5370013878257972
aF0.5865439192259516
aF0.9092873628586676
aF0.9280615477572177
aF0.22914223385528043
aF0.05198358745371212
aF0.9555122785651449
aF0.03183405894922153
aF0.8061878984373599
aF0.3059722003061569
atp2165
Rp2166
(dp2167
g237
g3
(g270
g264
Ntp2168
Rp2169
(dp2170
g274
(g275
(g19
S']?\xbc\x16h\x1b\xd4?'
p2171
tp2172
Rp2173
g275
(g19
S"\xbeY\xe4=\x89'\xbf\xbe"
p2174
tp2175
Rp2176
tp2177
sbsbag3
(g305
g5
(lp2178
F0.24918546473019543
aF0.05163355944825865
aF0.5370013878257972
aF0.5865439192259516
aF0.9092873628586676
aF0.9280615477572177
aF0.22914223385528043
aF0.8574020717714989
aF0.6438666032667446
aF0.20528643239486033
aF0.7349440483781373
aF0.33069945842702675
atp2179
Rp2180
(dp2181
g237
g3
(g270
g264
Ntp2182
Rp2183
(dp2184
g274
(g275
(g19
S'\xe0\x9f\xec\xbc\xd8\xa6\xd1?'
p2185
tp2186
Rp2187
g275
(g19
S'1(\xee\xe2J\xd7\xa7\xbe'
p2188
tp2189
Rp2190
tp2191
sbsbag3
(g305
g5
(lp2192
F0.3917726245005744
aF0.018238833432312473
aF0.01549469035937534
aF0.6731187768758369
aF0.9798676678811296
aF0.8031816417222576
aF0.1786730195177918
aF0.7612278144045045
aF0.32618901837752423
aF0.031001335316443335
aF0.6949097091513368
aF0.18411703392713663
atp2193
Rp2194
(dp2195
g237
g3
(g270
g264
Ntp2196
Rp2197
(dp2198
g274
(g275
(g19
S'\xf6\xf2\xf0\x86\x92\xad\xd1?'
p2199
tp2200
Rp2201
g275
(g19
S'\x94\xc4<\xb9]\x14\xac\xbe'
p2202
tp2203
Rp2204
tp2205
sbsbag3
(g305
g5
(lp2206
F0.40883988425570095
aF0.20784805918014904
aF0.9846210668696717
aF0.77454488636805
aF0.29062405097422583
aF0.7662538329435973
aF0.047785665411684164
aF0.7377598525426373
aF0.5572139440300724
aF0.5418417507628457
aF0.5138590989802373
aF0.25447680901610525
atp2207
Rp2208
(dp2209
g237
g3
(g270
g264
Ntp2210
Rp2211
(dp2212
g274
(g275
(g19
S'\x95\x18gO\xb7:\xd0?'
p2213
tp2214
Rp2215
g275
(g19
S'aT\xf6r|\xb6\xbc\xbe'
p2216
tp2217
Rp2218
tp2219
sbsbag3
(g305
g5
(lp2220
F0.7476640321013379
aF0.6028937147350164
aF0.9905309975889254
aF0.8097735892459322
aF0.20834489122543476
aF0.8111159046526394
aF0.5185610684494517
aF0.43396655517335025
aF0.7076790213929339
aF0.5824059796538945
aF0.8290099607190412
aF0.5206703542630263
atp2221
Rp2222
(dp2223
g237
g3
(g270
g264
Ntp2224
Rp2225
(dp2226
g274
(g275
(g19
S'\xe3\xb1\x9d"\xfb%\xca?'
p2227
tp2228
Rp2229
g275
(g19
S'\x9e~\x05\xf7b\xdf\xb1\xbe'
p2230
tp2231
Rp2232
tp2233
sbsbag3
(g305
g5
(lp2234
F0.37196643994204925
aF0.5251944739889904
aF0.01549469035937534
aF0.6731187768758369
aF0.43179894128368124
aF0.8810542357293347
aF0.27543703966078326
aF0.6500322666671083
aF0.41055281389881537
aF0.5064450743336961
aF0.44751845282738867
aF0.03447515489693542
atp2235
Rp2236
(dp2237
g237
g3
(g270
g264
Ntp2238
Rp2239
(dp2240
g274
(g275
(g19
S'z\n\xf4\xb6\xbd\x90\xcf?'
p2241
tp2242
Rp2243
g275
(g19
S'\xff\xc3\x9f\xfc\xda\x9f\xa0\xbe'
p2244
tp2245
Rp2246
tp2247
sbsbag3
(g305
g5
(lp2248
F0.6419405016830559
aF0.11401403072583027
aF0.6032508916155301
aF0.48369509512094244
aF0.7511222003379617
aF0.9533879472509146
aF0.8074105968090263
aF0.1284149856240372
aF0.11837143801225092
aF0.9671477913926578
aF0.31916834676125483
aF0.07732212831197494
atp2249
Rp2250
(dp2251
g237
g3
(g270
g264
Ntp2252
Rp2253
(dp2254
g274
(g275
(g19
S'#\x9a\x9f\x91r\xf9\xcd?'
p2255
tp2256
Rp2257
g275
(g19
S'\xe7\xb5\x1c\xbaZ\xf3\xb5\xbe'
p2258
tp2259
Rp2260
tp2261
sbsbag3
(g305
g5
(lp2262
F0.3917726245005744
aF0.018238833432312473
aF0.06931826443882871
aF0.9601751299214835
aF0.4531083339780627
aF0.23221425487972447
aF0.15332415483552697
aF0.6500322666671083
aF0.6438666032667446
aF0.20528643239486033
aF0.5398410038532847
aF0.33069945842702675
atp2263
Rp2264
(dp2265
g237
g3
(g270
g264
Ntp2266
Rp2267
(dp2268
g274
(g275
(g19
S'\xd0V!Vo\xad\xcf?'
p2269
tp2270
Rp2271
g275
(g19
S']\xbbU\xb06\xf3\xad\xbe'
p2272
tp2273
Rp2274
tp2275
sbsbag3
(g305
g5
(lp2276
F0.540985975748953
aF0.3637971949673625
aF0.4788753000458973
aF0.7280456593855987
aF0.9798676678811296
aF0.8031816417222576
aF0.1786730195177918
aF0.7612278144045045
aF0.32618901837752423
aF0.9671477913926578
aF0.31916834676125483
aF0.07732212831197494
atp2277
Rp2278
(dp2279
g237
g3
(g270
g264
Ntp2280
Rp2281
(dp2282
g274
(g275
(g19
S':\x92\x1e\x9aph\xcf?'
p2283
tp2284
Rp2285
g275
(g19
S'\xbf\x08\xea\xfc\xc6\x8c\x92\xbe'
p2286
tp2287
Rp2288
tp2289
sbsbag3
(g305
g5
(lp2290
F0.06124847187604232
aF0.36839611148764506
aF0.14349267134672128
aF0.951099061827515
aF0.07002236859428068
aF0.7708723869757115
aF0.22905887441021422
aF0.513201781753216
aF0.7448161152566296
aF0.12850524513119443
aF0.5792552668804902
aF0.9999891559865893
atp2291
Rp2292
(dp2293
g237
g3
(g270
g264
Ntp2294
Rp2295
(dp2296
g274
(g275
(g19
S'p0\xcd\xe0\xa9\xe1\xa5?'
p2297
tp2298
Rp2299
g275
(g19
S'\xac\xf3\xd4\xc9nU\x82\xbe'
p2300
tp2301
Rp2302
tp2303
sbsbag3
(g305
g5
(lp2304
F0.6153508258204483
aF0.7145352462540179
aF0.01549469035937534
aF0.6731187768758369
aF0.43179894128368124
aF0.8810542357293347
aF0.27543703966078326
aF0.2815553656488736
aF0.04918913484266252
aF0.9448121344424785
aF0.8228172071826297
aF0.018064307748204333
atp2305
Rp2306
(dp2307
g237
g3
(g270
g264
Ntp2308
Rp2309
(dp2310
g274
(g275
(g19
S'\xe6\xc9L]\xb2\xf3\xcf?'
p2311
tp2312
Rp2313
g275
(g19
S'\x1a,)/\xc7\xf0c\xbe'
p2314
tp2315
Rp2316
tp2317
sbsbag3
(g305
g5
(lp2318
F0.1843291483801095
aF0.7043285370786905
aF0.8863353144890057
aF0.9474218316783549
aF0.03156261505171665
aF0.2623285203110235
aF0.3535485209678708
aF0.5874573396088024
aF0.5890074968214009
aF0.3593234733172257
aF0.6342392715552857
aF0.3628015803741803
atp2319
Rp2320
(dp2321
g237
g3
(g270
g264
Ntp2322
Rp2323
(dp2324
g274
(g275
(g19
S'\xc6\xc3\x9fG\x96L\xcd?'
p2325
tp2326
Rp2327
g275
(g19
S'\xa1}l\xdd\x11+\xb7\xbe'
p2328
tp2329
Rp2330
tp2331
sbsbag3
(g305
g5
(lp2332
F0.09515425830438784
aF0.8519975635205024
aF0.4013761923039807
aF0.13311559815307883
aF0.9723137369696216
aF0.24370592202721686
aF0.15221038442289758
aF0.27199469425997747
aF0.5265724817305583
aF0.696304790076326
aF0.7231462278289398
aF0.5750875630869112
atp2333
Rp2334
(dp2335
g237
g3
(g270
g264
Ntp2336
Rp2337
(dp2338
g274
(g275
(g19
S'p\xc9\xf1\x8f,-\xbd?'
p2339
tp2340
Rp2341
g275
(g19
S'\x81\x92\xcf\xc1\xf1\xf8\x8d\xbe'
p2342
tp2343
Rp2344
tp2345
sbsbag3
(g305
g5
(lp2346
F0.9355354326747136
aF0.4021196358480176
aF0.49800267327480163
aF0.34127946908644224
aF0.29107843344585127
aF0.7456008448863743
aF0.3416960634481543
aF0.9917475594401989
aF0.613410781122371
aF0.19040879578810888
aF0.7228083722313278
aF0.6760656899190586
atp2347
Rp2348
(dp2349
g237
g3
(g270
g264
Ntp2350
Rp2351
(dp2352
g274
(g275
(g19
S'\xb5\xa5\xa8\xc7U=\xc0?'
p2353
tp2354
Rp2355
g275
(g19
S'I2\xec\xd4\xce\x9f\x9f\xbe'
p2356
tp2357
Rp2358
tp2359
sbsbag3
(g305
g5
(lp2360
F0.9473777338140257
aF0.2528583109120488
aF0.7254784334324886
aF0.16737330118030092
aF0.21442722443528928
aF0.10656634026271028
aF0.37733129409243105
aF0.7044016422158496
aF0.2794880399799593
aF0.8044017459824765
aF0.02924315771080077
aF0.45928807779394865
atp2361
Rp2362
(dp2363
g237
g3
(g270
g264
Ntp2364
Rp2365
(dp2366
g274
(g275
(g19
S'\x15\x19\x02s-\xa5\xc0?'
p2367
tp2368
Rp2369
g275
(g19
S'\x10\x81\x94\xe4T\xdb\x8e\xbe'
p2370
tp2371
Rp2372
tp2373
sbsbag3
(g305
g5
(lp2374
F0.43388267013927806
aF0.20495847065913642
aF0.2977053191878072
aF0.574333667678252
aF0.8319870212503654
aF0.34415396975029966
aF0.3466870815493469
aF0.08714184466333275
aF0.13536983595516017
aF0.5718056056973754
aF0.9729733175527012
aF0.2074405396896415
atp2375
Rp2376
(dp2377
g237
g3
(g270
g264
Ntp2378
Rp2379
(dp2380
g274
(g275
(g19
S'\xcdg\xae\x10\xf6\x89\xcd?'
p2381
tp2382
Rp2383
g275
(g19
S' \xb4\x89j\xf8\xb2\xc7\xbe'
p2384
tp2385
Rp2386
tp2387
sbsbag3
(g305
g5
(lp2388
F0.24918546473019543
aF0.05163355944825865
aF0.5370013878257972
aF0.5865439192259516
aF0.9092873628586676
aF0.9280615477572177
aF0.6261654011306463
aF0.05198358745371212
aF0.9555122785651449
aF0.03183405894922153
aF0.8061878984373599
aF0.094760101881739
atp2389
Rp2390
(dp2391
g237
g3
(g270
g264
Ntp2392
Rp2393
(dp2394
g274
(g275
(g19
S'\x98\x12\xcb\xa6\xfb\xde\xd2?'
p2395
tp2396
Rp2397
g275
(g19
S'\xf5H\x85\x8f\x94\x87\xb4\xbe'
p2398
tp2399
Rp2400
tp2401
sbsbag3
(g305
g5
(lp2402
F0.833128981973485
aF0.15137806360452466
aF0.5394933907734345
aF0.32452162049737865
aF0.07005997758014937
aF0.12673736559811455
aF0.22339408847142073
aF0.7304042502975737
aF0.8301183947513378
aF0.8936158569416079
aF0.7090790951730448
aF0.561105377918676
atp2403
Rp2404
(dp2405
g237
g3
(g270
g264
Ntp2406
Rp2407
(dp2408
g274
(g275
(g19
S'\x9a\xad\x8d\x04r\x7f\xba?'
p2409
tp2410
Rp2411
g275
(g19
S'\xa5Q\r\xae\xb4\xbf\x88\xbe'
p2412
tp2413
Rp2414
tp2415
sbsbag3
(g305
g5
(lp2416
F0.37055593393344444
aF0.837831539878593
aF0.3718332211000124
aF0.33752688920808593
aF0.7013287688774957
aF0.546098092361334
aF0.9956030994094933
aF0.5919255138639256
aF0.5632888690693899
aF0.8440089143857911
aF0.9478576964970528
aF0.3718388941138797
atp2417
Rp2418
(dp2419
g237
g3
(g270
g264
Ntp2420
Rp2421
(dp2422
g274
(g275
(g19
S'\x18\xee+\xee\x10z\xcc?'
p2423
tp2424
Rp2425
g275
(g19
S'\xcd\x97\xc2W\xff@\xa6\xbe'
p2426
tp2427
Rp2428
tp2429
sbsbag3
(g305
g5
(lp2430
F0.2691094858100369
aF0.13435987678362626
aF0.849198120368014
aF0.7345557504852317
aF0.8571908651620515
aF0.943815723074835
aF0.4049340348867464
aF0.8574020717714989
aF0.6438666032667446
aF0.20528643239486033
aF0.5398410038532847
aF0.33069945842702675
atp2431
Rp2432
(dp2433
g237
g3
(g270
g264
Ntp2434
Rp2435
(dp2436
g274
(g275
(g19
S'\x0e\xc0\tl\x1f3\xd2?'
p2437
tp2438
Rp2439
g275
(g19
S'\xaf\xeb\xa4\x01\x11\xac\xb1\xbe'
p2440
tp2441
Rp2442
tp2443
sbsbag3
(g305
g5
(lp2444
F0.6579820569747172
aF0.14510483185253498
aF0.6292046196437572
aF0.8971530123986611
aF0.38755589524239575
aF0.07479146662476255
aF0.10172061868103477
aF0.42803308789616257
aF0.04938875465351622
aF0.4702338667954342
aF0.3497197112065128
aF0.21964668223676087
atp2445
Rp2446
(dp2447
g237
g3
(g270
g264
Ntp2448
Rp2449
(dp2450
g274
(g275
(g19
S'\xdf\xa0\x80\x86\xeb\x19\xd0?'
p2451
tp2452
Rp2453
g275
(g19
S'\xed\xa25\xb4\x0f\x86\xb0\xbe'
p2454
tp2455
Rp2456
tp2457
sbsbag3
(g305
g5
(lp2458
F0.3917726245005744
aF0.14510483185253498
aF0.314352540940951
aF0.7345557504852317
aF0.8571908651620515
aF0.2610548995512111
aF0.4049340348867464
aF0.8574020717714989
aF0.6438666032667446
aF0.20528643239486033
aF0.6987468291996003
aF0.33069945842702675
atp2459
Rp2460
(dp2461
g237
g3
(g270
g264
Ntp2462
Rp2463
(dp2464
g274
(g275
(g19
S'\xe3b#\xf0\xfd\xac\xcc?'
p2465
tp2466
Rp2467
g275
(g19
S'a\x12\x99\xedq:\xa6\xbe'
p2468
tp2469
Rp2470
tp2471
sbsbag3
(g305
g5
(lp2472
F0.24918546473019543
aF0.05163355944825865
aF0.5370013878257972
aF0.5865439192259516
aF0.9092873628586676
aF0.9280615477572177
aF0.22914223385528043
aF0.4114777944716729
aF0.037621222315277425
aF0.20528643239486033
aF0.5398410038532847
aF0.33069945842702675
atp2473
Rp2474
(dp2475
g237
g3
(g270
g264
Ntp2476
Rp2477
(dp2478
g274
(g275
(g19
S'\x0e(\xd3f\xa9 \xd1?'
p2479
tp2480
Rp2481
g275
(g19
S'\xcf\x82\xbe)\xa3@\xb3\xbe'
p2482
tp2483
Rp2484
tp2485
sbsbag3
(g305
g5
(lp2486
F0.9112186175882826
aF0.14510483185253498
aF0.6292046196437572
aF0.7345557504852317
aF0.8571908651620515
aF0.943815723074835
aF0.4071361598990447
aF0.8574020717714989
aF0.6438666032667446
aF0.9448121344424785
aF0.8228172071826297
aF0.018064307748204333
atp2487
Rp2488
(dp2489
g237
g3
(g270
g264
Ntp2490
Rp2491
(dp2492
g274
(g275
(g19
S'U9\x01\xaf\xa1\xfc\xcf?'
p2493
tp2494
Rp2495
g275
(g19
S'\x17\xb6_{\xb4\xedU\xbe'
p2496
tp2497
Rp2498
tp2499
sbsbag3
(g305
g5
(lp2500
F0.6579820569747172
aF0.14510483185253498
aF0.6292046196437572
aF0.7345557504852317
aF0.8571908651620515
aF0.943815723074835
aF0.4049340348867464
aF0.9362896443335926
aF0.9555122785651449
aF0.03183405894922153
aF0.8061878984373599
aF0.3059722003061569
atp2501
Rp2502
(dp2503
g237
g3
(g270
g264
Ntp2504
Rp2505
(dp2506
g274
(g275
(g19
S'\x1b0\x9d!\x9d\x9f\xd1?'
p2507
tp2508
Rp2509
g275
(g19
S';\x90\xc7\xd0\xbcp\xac\xbe'
p2510
tp2511
Rp2512
tp2513
sbsbag3
(g305
g5
(lp2514
F0.3917726245005744
aF0.14510483185253498
aF0.3767799034210847
aF0.7345557504852317
aF0.8571908651620515
aF0.943815723074835
aF0.4049340348867464
aF0.8574020717714989
aF0.6438666032667446
aF0.20528643239486033
aF0.6949097091513368
aF0.18411703392713663
atp2515
Rp2516
(dp2517
g237
g3
(g270
g264
Ntp2518
Rp2519
(dp2520
g274
(g275
(g19
S'@D8S\n)\xd0?'
p2521
tp2522
Rp2523
g275
(g19
S'\xdd\xea\x91Q\xcb\xc8\xa6\xbe'
p2524
tp2525
Rp2526
tp2527
sbsbag3
(g305
g5
(lp2528
F0.43631181519084283
aF0.056174735384531105
aF0.9983211551840949
aF0.39952273749120815
aF0.12167403597502346
aF0.12087098686507103
aF0.7073301654836875
aF0.3905194630125738
aF0.7432727568542611
aF0.10696228003685004
aF0.9996128843863445
aF0.7986192048065135
atp2529
Rp2530
(dp2531
g237
g3
(g270
g264
Ntp2532
Rp2533
(dp2534
g274
(g275
(g19
S'\x10\xef7\x9f\xb8\x8b\xaa?'
p2535
tp2536
Rp2537
g275
(g19
S'c{+\xc4\xe8I\x7f\xbe'
p2538
tp2539
Rp2540
tp2541
sbsbag3
(g305
g5
(lp2542
F0.19268371902067027
aF0.22947681889152838
aF0.16763434541739752
aF0.51072522824707
aF0.8541208533404885
aF0.9418641693031388
aF0.8709927838075069
aF0.4438815798694852
aF0.618318171740322
aF0.5676067037950902
aF0.25843979404575146
aF0.23914500804387884
atp2543
Rp2544
(dp2545
g237
g3
(g270
g264
Ntp2546
Rp2547
(dp2548
g274
(g275
(g19
S'\x11@\x15\x7f\x94L\xd0?'
p2549
tp2550
Rp2551
g275
(g19
S'\xab\x8e\x1b\xd5Q\x83\xc2\xbe'
p2552
tp2553
Rp2554
tp2555
sbsbag3
(g305
g5
(lp2556
F0.055871438024596154
aF0.5843967011974076
aF0.11119245772923836
aF0.47001759364575935
aF0.27429352363731463
aF0.31923189697866283
aF0.7360429145151656
aF0.509886531760695
aF0.7486120437007177
aF0.37879403986677795
aF0.36851629671386477
aF0.3323583496896739
atp2557
Rp2558
(dp2559
g237
g3
(g270
g264
Ntp2560
Rp2561
(dp2562
g274
(g275
(g19
S'&3\x7f%g\x84\xce?'
p2563
tp2564
Rp2565
g275
(g19
S'f\\\xeb\xa7\xf2\x19\xab\xbe'
p2566
tp2567
Rp2568
tp2569
sbsbag3
(g305
g5
(lp2570
F0.518751218818791
aF0.46858589130886186
aF0.11069885753311581
aF0.9009635975046658
aF0.9260776730536715
aF0.12326173385918071
aF0.08952371377448487
aF0.46005799731543395
aF0.07099069282203752
aF0.5160451319996833
aF0.19377595541179016
aF0.39466353789883934
atp2571
Rp2572
(dp2573
g237
g3
(g270
g264
Ntp2574
Rp2575
(dp2576
g274
(g275
(g19
S'\x83\xdan\x06j\x17\xc7?'
p2577
tp2578
Rp2579
g275
(g19
S'\xcdC\xc5\xff\x0c\xce\xc3\xbe'
p2580
tp2581
Rp2582
tp2583
sbsbag3
(g305
g5
(lp2584
F0.3917726245005744
aF0.018238833432312473
aF0.01549469035937534
aF0.6731187768758369
aF0.9798676678811296
aF0.8031816417222576
aF0.1786730195177918
aF0.7612278144045045
aF0.32618901837752423
aF0.031001335316443335
aF0.5398410038532847
aF0.33069945842702675
atp2585
Rp2586
(dp2587
g237
g3
(g270
g264
Ntp2588
Rp2589
(dp2590
g274
(g275
(g19
S'I\x00\x99\xb9\xb0\xba\xd2?'
p2591
tp2592
Rp2593
g275
(g19
S'\x0fKL\x9c`;\xb5\xbe'
p2594
tp2595
Rp2596
tp2597
sbsbas.