(dp0
S'generation'
p1
I7
sS'logbook'
p2
ccopy_reg
_reconstructor
p3
(cdeap.tools.support
Logbook
p4
c__builtin__
list
p5
(lp6
(dp7
S'std'
p8
cnumpy.core.multiarray
_reconstruct
p9
(cnumpy
ndarray
p10
(I0
tp11
S'b'
p12
tp13
Rp14
(I1
(I2
tp15
cnumpy
dtype
p16
(S'f8'
p17
I0
I1
tp18
Rp19
(I3
S'<'
p20
NNNI-1
I-1
I0
tp21
bI00
S'(\xde\xda*%\x83\xb2?6\x88*z\xc7\x9ft?'
p22
tp23
bsS'evals'
p24
I15
sS'min'
p25
g9
(g10
(I0
tp26
g12
tp27
Rp28
(I1
(I2
tp29
g19
I00
S'\xa2{\xe0\xf9\xb8J\x90?\x9b\xdajl\r\x987?'
p30
tp31
bsS'max'
p32
g9
(g10
(I0
tp33
g12
tp34
Rp35
(I1
(I2
tp36
g19
I00
S'\xcaV]u\xa2\xee\xd0?%K\xc6\xa4\xc4I\x9b?'
p37
tp38
bsS'avg'
p39
g9
(g10
(I0
tp40
g12
tp41
Rp42
(I1
(I2
tp43
g19
I00
S')\xb6\xc3U\x9bU\xc4?\x12\xcal\x81\x03\x89u?'
p44
tp45
bsS'gen'
p46
I0
sa(dp47
g8
g9
(g10
(I0
tp48
g12
tp49
Rp50
(I1
(I2
tp51
g19
I00
S' \xd7alG\xbd\xb2?\x0b{r\x8e\x83&r?'
p52
tp53
bsg24
I20
sg25
g9
(g10
(I0
tp54
g12
tp55
Rp56
(I1
(I2
tp57
g19
I00
S"\xa2{\xe0\xf9\xb8J\x90?SQ'kSq&?"
p58
tp59
bsg32
g9
(g10
(I0
tp60
g12
tp61
Rp62
(I1
(I2
tp63
g19
I00
S'\xa0\xf4n\x0cJ\xb4\xd1?%K\xc6\xa4\xc4I\x9b?'
p64
tp65
bsg39
g9
(g10
(I0
tp66
g12
tp67
Rp68
(I1
(I2
tp69
g19
I00
S"Q\xdc\x17\x13'`\xc6?\x8ei\x14q\xe1\xe9t?"
p70
tp71
bsg46
I1
sa(dp72
g8
g9
(g10
(I0
tp73
g12
tp74
Rp75
(I1
(I2
tp76
g19
I00
S'y\xeb\x13\xaf\xa0t\xb3?w\x1f\xeb\xe9\n\xfbr?'
p77
tp78
bsg24
I13
sg25
g9
(g10
(I0
tp79
g12
tp80
Rp81
(I1
(I2
tp82
g19
I00
S"\xa2{\xe0\xf9\xb8J\x90?SQ'kSq&?"
p83
tp84
bsg32
g9
(g10
(I0
tp85
g12
tp86
Rp87
(I1
(I2
tp88
g19
I00
S'\xaa\x02\x06\xcb\xe9\x84\xd2?%K\xc6\xa4\xc4I\x9b?'
p89
tp90
bsg39
g9
(g10
(I0
tp91
g12
tp92
Rp93
(I1
(I2
tp94
g19
I00
S'(b\xd1\xff\xbc\xcd\xc6?Bj\xc0\xc2\xaegv?'
p95
tp96
bsg46
I2
sa(dp97
g8
g9
(g10
(I0
tp98
g12
tp99
Rp100
(I1
(I2
tp101
g19
I00
S'\x949_\x163]\xb2?\x9428S\x82\x9ey?'
p102
tp103
bsg24
I20
sg25
g9
(g10
(I0
tp104
g12
tp105
Rp106
(I1
(I2
tp107
g19
I00
S"\xa2{\xe0\xf9\xb8J\x90?SQ'kSq&?"
p108
tp109
bsg32
g9
(g10
(I0
tp110
g12
tp111
Rp112
(I1
(I2
tp113
g19
I00
S'\xaa\x02\x06\xcb\xe9\x84\xd2?\x02%a\xebc\xb6\xa7?'
p114
tp115
bsg39
g9
(g10
(I0
tp116
g12
tp117
Rp118
(I1
(I2
tp119
g19
I00
S'\xf4\x8cL^J\x07\xc8?\x11\xff$]u\x19z?'
p120
tp121
bsg46
I3
sa(dp122
g8
g9
(g10
(I0
tp123
g12
tp124
Rp125
(I1
(I2
tp126
g19
I00
S'(\xc3\xa1R9,\xb2?/\x8b\xcd\xd1m\xc3w?'
p127
tp128
bsg24
I20
sg25
g9
(g10
(I0
tp129
g12
tp130
Rp131
(I1
(I2
tp132
g19
I00
S"\xa2{\xe0\xf9\xb8J\x90?SQ'kSq&?"
p133
tp134
bsg32
g9
(g10
(I0
tp135
g12
tp136
Rp137
(I1
(I2
tp138
g19
I00
S'\xaa\x02\x06\xcb\xe9\x84\xd2?\x02%a\xebc\xb6\xa7?'
p139
tp140
bsg39
g9
(g10
(I0
tp141
g12
tp142
Rp143
(I1
(I2
tp144
g19
I00
S'\x86EY#\x1e\x9d\xc8?\x94\x97\xbe\xd5,\xe8x?'
p145
tp146
bsg46
I4
sa(dp147
g8
g9
(g10
(I0
tp148
g12
tp149
Rp150
(I1
(I2
tp151
g19
I00
S"e\xb0c.'-\xb2?k\xe4f\x89\xfc,w?"
p152
tp153
bsg24
I17
sg25
g9
(g10
(I0
tp154
g12
tp155
Rp156
(I1
(I2
tp157
g19
I00
S"\xa2{\xe0\xf9\xb8J\x90?SQ'kSq&?"
p158
tp159
bsg32
g9
(g10
(I0
tp160
g12
tp161
Rp162
(I1
(I2
tp163
g19
I00
S'\xaa\x02\x06\xcb\xe9\x84\xd2?\x02%a\xebc\xb6\xa7?'
p164
tp165
bsg39
g9
(g10
(I0
tp166
g12
tp167
Rp168
(I1
(I2
tp169
g19
I00
S'\xe3\xfd\xfd\x7f#\xe6\xc8?\x96\x8f\x83\xb5\xb4\x01y?'
p170
tp171
bsg46
I5
sa(dp172
g8
g9
(g10
(I0
tp173
g12
tp174
Rp175
(I1
(I2
tp176
g19
I00
S'1O\xfczk[\xb2?\xf7\xb4\xa7\xda\xe4gv?'
p177
tp178
bsg24
I19
sg25
g9
(g10
(I0
tp179
g12
tp180
Rp181
(I1
(I2
tp182
g19
I00
S"\xa2{\xe0\xf9\xb8J\x90?SQ'kSq&?"
p183
tp184
bsg32
g9
(g10
(I0
tp185
g12
tp186
Rp187
(I1
(I2
tp188
g19
I00
S'gx\xed)?\xe0\xd2?\x02%a\xebc\xb6\xa7?'
p189
tp190
bsg39
g9
(g10
(I0
tp191
g12
tp192
Rp193
(I1
(I2
tp194
g19
I00
S'\xcb\x121\xfd\x9a\xfc\xc8?\x83Y\xf8N\x81\x14y?'
p195
tp196
bsg46
I6
sa(dp197
g8
g9
(g10
(I0
tp198
g12
tp199
Rp200
(I1
(I2
tp201
g19
I00
S'2C\xfe\x00pF\xb2?\xbdM\xf8.\x05\xadu?'
p202
tp203
bsg24
I18
sg25
g9
(g10
(I0
tp204
g12
tp205
Rp206
(I1
(I2
tp207
g19
I00
S"\xa2{\xe0\xf9\xb8J\x90?SQ'kSq&?"
p208
tp209
bsg32
g9
(g10
(I0
tp210
g12
tp211
Rp212
(I1
(I2
tp213
g19
I00
S'gx\xed)?\xe0\xd2?\x02%a\xebc\xb6\xa7?'
p214
tp215
bsg39
g9
(g10
(I0
tp216
g12
tp217
Rp218
(I1
(I2
tp219
g19
I00
S'6\xe8\xa31J\xfd\xc8?\xee/\x92#p\x80y?'
p220
tp221
bsg46
I7
satp222
Rp223
(dp224
S'log_header'
p225
I01
sS'header'
p226
(S'gen'
p227
S'evals'
p228
S'fitness'
p229
tp230
sS'columns_len'
p231
NsS'buffindex'
p232
I0
sS'chapters'
p233
ccollections
defaultdict
p234
(g4
tp235
Rp236
S'fitness'
p237
g3
(g4
g5
(lp238
tp239
Rp240
(dp241
g225
I01
sg226
(g39
S'max'
p242
S'min'
p243
S'std'
p244
tp245
sg231
Nsg232
I0
sg233
g234
(g4
tp246
Rp247
sbssbsS'rndstate'
p248
(S'MT19937'
p249
g9
(g10
(I0
tp250
g12
tp251
Rp252
(I1
(I624
tp253
g16
(S'u4'
p254
I0
I1
tp255
Rp256
(I3
S'<'
p257
NNNI-1
I-1
I0
tp258
bI00
S'\'\xea3\xd1\xd6\xb1\x10\xac2\xbd\x8d\xe5\xa5\x15\x83\xb8\xddTOct\xe2;\xe0r/W\xa3.\xe1\xcc\xa0\xd3@R\xb5\xcf\xb4\n\x18w\xf9\xcd\xdd\xc7#\xc9\xe0\x8a\xdb\x0e\xa1\xb2\x08:%\x88^\x06\x1b\xcc\xf0_\x91\x13T\x8c\xa1~\xbch\xfa\x0c\x17$D\xdb\xc8jV\xfcZ\xd8\xbf\r\xbf\xfd\xbd\x81/\x96\x00\x86\xfd\x9c\xabh\xc7\x1c1\x18Z\x80\x99@\xc3<\xbf\x07\xc5>\x80\x13$\x10\x0b\x08\xf4I\xe8\xff\x1c\xc2\xd9\x87\xe39\xbd\xbc$\xfb\xd5\x8e"{\x0c\xc7C\x05\xb7\x19Z\x1a\x86\xac\xbd\xef\x86\xb6\xa2\xc2\xe8\xf7hf]\xe5\x1d\xbfp\xd6\x1b\xd8\xf7\x89B\x95\xd5U\xff\x87^\xde*\xf1z\xb8\x10\xdb\xae\xbe\xa4\xd1~\xef_Y\xca\tl\xeev \x93\x0f\x10%\x8a\x13E\t\x91\xcfg\'\x15\xec\x13\x13\xfd\xcc\xc1\'\x93\x03\xe45\xbf\xe8>\xba\xe52#+\xb1\x14\xd6\x08t\xb2\x8c\xd0\xb1\x9aN\xec\x8b\xee\x14Ra\xb2\x8e\x9d\xecaVo\x12\x07S\xfe\xa1\xbe\nA\xbf\xfa@+G\xac\x020\x96q\x05\xf5\xe3/\xf9\xb94:\xba}{\x1f\xf5"\xcc4i*z\x14N\x01$\xc5\x9a(\xd5M\x14\xbb\xe5\xba\x15\x870o\x8cD0\xc0\xbc\xd6\x8bdg\xb6\x0faV\xc5\xcb\x93\xff\xa1~\xa1\x04Z\xa2\xe0GbvX\xb1\xed|\xe65_\x8d\xa1\x07\xfb\x948\x1a\x814\xb0\xaa\xc1c\x89\xe7\x80\xe701oI1U\xb6\x8e\xe5\x01\x0cAv\x01\x13\x00\x0f\xde\x00\x9e\xce\xbe\x8e\xc9\x9eL,\x16w~\xd4\xe9\xa1b\xf3\xc9\xf4\x85\x87\x8dr\x83\x9c\xd5.I\xdc\xb5\xf1?\x89\xaf\xa5\xd9\x99A\x1d\x10\xd7\xadPT\xa1Ff\x18\xc5\xa4,\xb3|R\r\x0f\xc1\xab\xa7\x84K8\xe4\x86\xb4\xbc8Oc\xa9\xcb\xa3\xce\xa0{~]1o`\xb2b\xa1Z\xd7f\x8a\xea\x98h\xcdCS\x93`\xe8~z\xc0\nn\x8e\x86l\xfd\xa71\xa6\x9b\xd9FU<\x84\x82k\xe7\x1c\xd89\xa4B\xf7x\xca\xa9\xf0F\xad\'\xecq\xa5\x8bb\xbb$\x1c\xd5\xef(\xf2\xa4\xabp\x05Yp3\xcbwhl\xf0\x03\xb0\xec\xfd\xbe\x88\xc1\xd6\xfc\xf2>\x1dI\xba\\\xe3\xc8\x14\xcd\x11\xd1\xd5\xee%\x1b?\xdd7\x8b\xda-\xbd\\\\Hh\x80\x93\xbeh\xe40B>m\xe7Y|%\x98\xdc]\x11!6\xd61\xc4>\x81\xef\x86\xe7\xd2x\x08\x08T\xf67\xfah\xe6:\xb2\x9aw\xd5\xd0k\x0eT+1\xb9\xf7\xdf\xae\xf2\x835e*\xa4\t\xc4\x97\xb7U\x85\x87/l\xf7;\x80J\x13\xe8\xaas\x1c\xc0M\xd4\xe7\xd6\xb3\xdfh\xc1\xa7H\xd6\xac\x14\x9dmr\x12\x92q&%\x96#\xc7c\xa0\'\x89\xf9:XW\x877\x88\x1c\xb6\xc48<c\xdf2\x9d\xb6\x19\xaf{MVyey\x1f\xaa\xa0|B+\x8fd\xfc?!j\x8b\xf3\xacb\xca5\x16\xdf\xc4\x0eDz\xd7\xc4\xee\xadOi\x9d\x99\xbfqe\x18\xab\x07\xd0\xc0\xc6\xf9\x88U\x80`HO\x13G\xec\x86\xeelu \xf4\xaa\x97(\x1a\xb85\xb3\xf7\x9f"\x8b\xd8\\\x9d\xfb~\x8a\xa1*\xdflN\xe9\xd9\xc1\xeb\x13VF\x8d\x7f?\xe2\xf1\r3j\xe6&\xdal\x95\x84\xd3\x1b3uf\xc4\xf69\xbfs\xd1\xc5\xaa\x99\xb2\xfaz\xf2\xf1\xfe\xeaO\x06\x0c\xd1%v\xc3\xea;\xa6\xd8t\xe3bU{.\xd1\x93\xc3\x9d\xf7\xe3h\xc2;\xaa\x07\xd8\xba\xacl\xaf\xf0\xa7\xdb4\x02i\xc5\x1aZZt\nI\xe3\xbd\x10H_\xf6\x1e\xa5\x9d\x8c\x93\n8\x9d8\xf0E\x0b\x00\xf9\xfa|\xf16/{\xfd\xc4\x9b/`\x9a\xb6\xca\xac\xbb\xba\xee\xb8G"w=\xc2\x08Q\xf3e\x10H\xc2\xfa17\x0f\xaf\xe6p\x97\x07\xb9\xe1\xa8\x9f\xc9nA\xc2:\xac\xdc\xcc#\xe2\xdf\x97\n\xd0\xf9\x80\xd4\x15\xb2E|p\x1a\x9b\xae\x1cJ\x9bE\xf7\xc7t,\xe6\x10\x9c\x8d\x12h\xbb\xcbcL>\x8a\xa8m\xd8\xc9\x97\xd6\xb2\xaa\x93\x8b\xcb\x818\xe1@\x1c\xb7\xc3\xae\x9f3\xcd\xa1\xa2\x08\xafa\x91\xcc\xbcjW\x8bk?W\xa3 \xf0m Q\xfb.\x8dN\xca6\xa0\x16O\x0e"\x8c\xe88k\xde\xd4\xe7!\x9dO\xbaIu\xea_\xeb\xe2*\x83d\xc3d\xca\xd1\xa8\x8e\xcd&\x03\xd24\x90\x90\xbeb}\x91\xb7\xca\x85\xb0\x8c\xd9xv\xecv\xe7z\xab\xcb)2\xec\x84b\x16\xd2\t0)G\x85}\xd3\x86\x8cl\xaa\xc0c\xb4]T]aM\xd3\xd9\n\x95v6\xc9\x98o{BG\x16X\xd3?P\xb7\x8b\x05\xd7\xf9\xa5\x97\x8es\xb1d\xe1-\xbe\xed\x9f\x0cK\xf9z\x96h\xf5\xc7\'Z\x07\xdf\xd1f\x8a`\x8c\xa5\xb9\xfe\x02\xf1RMw]\xc1 m\x04\xd0\xab\x03ce\xb4#s@\xc1\x98)\xff\xb9O\xc89\xf2p\xb3\x1e\xeco.\xb36\xa6\xef\xb6\xe4\xf4\xfeiW\x0f\x83\x81|y\xf2i\xc5h@\x00\x13\xb4\xc3\xb4\x96\x11\x1a\x1b\x9e\xccZ\x18\x1c\xe18\xdc\x17\xdf\x9f\xe3\xa6\n\x9aa\xbb0q\xfb\xcc\xac+i\x92.\xc8\x99\xfd\x0e\xaa\x0b,\x1d\xba w\xdcFe\x03\xd5l\xb5\xf7a\xa6\xa0\x80h\xdb:\x95\x1b$d\xe9\xfe\xee\x9a\x15\xea\xc8^\x91\x91\xc8\xca7\xf6SO\xa5[C\xc9\xac\x81x\xd9\xa1,\xad\xd7}\x8b\xc8_\xd4\x12\xaa\xf72\xe2%Mj\x17\xb1\xcb\xa6X\x1b\x86C\x7f\x15\xb3Q\x9b\xa9\xc8\x1d\xca2\xf5/y{\x12F\x1aEjZE\\\xf8\t\xf4\x07O\xe1\xee\xd72\x01\x1e\x9e\x87\\\xcf\x0bY\xd4h\xcbS\xf6\xc7\x92\xd1&\xa6\x9c\xb1\xf7\x02\x19\xc8^\xcc~\xdfp\x8b~\xa2\x836\x93\xea\xc1\x9f\xd6\x11\xbc_\xde\xf5\xd3\xff,D\xd6h\xa0\xe8n\x95\xff\xbeUGqlk\x84\xde\xcb[\xad\xd5\x06C0\xa4\xc2T\xf6\x02\xb3\x83@\xd1\xab\x06\xd4\xfd{T\xc4\x13\xea\xd39\xd9cQ\xdcT\xfaT\xa5C\xee*\xe0vcL\xe5\x9fy\x16f\xe2\x98\xaeX\xef\xb4hu{\x8b,+\xb2m\x12\xbe\xcax `\x83\xe8"\xfc\x941\x17Z\xb3h\x8d*\xa0\x12\x9fX\x12Yf\xf1\x11\xaf\xa2O\xc3;\r\xdd\xef\xc3:\n\xc3\x92I2\xb5{\xf6\x00\xdd\xd9\xeaS=e\x145\x86\x03\xe8\x19\xf7\xb9\xb9D\x96[\xc0\x83\x8b\x93\xcd\x9e\xa6\xe3\xf8\xf4\xd0\xa4R\xcb\xa9\x9d\xe4\x90\xee\xe2\x02t\xbdJ\xcb\xe6\x88\xa8\x9f\xbdpxS\x95\xc5\x8d\x95\x0b\xe1Pw\\\xe6%>\x8f\x9b`\xea2\x80\xdc.\xdc\xb8ia\x85\xb2\x15\x90\xb6p\x0ej\x7fOB,\xbe]\xcd\x9b\x82\xfc\xf8\xd5;O\xcc\xb5\x92\x8aH\x1a\xe5\x1b3\xde\x1fY]G\x86\xa7NA)\xd8~&~\xa3x\x81;\x83\x0f\x87BLs\x05,\xd9+\xf7\xb7\xef,\x99\t\x99\x1b<\x82 \x9d+\xfe\xd1,\xb3\x98\x90\xc1\xa8\x1c\xf8@grS\x86/\x0bf\tf\x93\xd2L\xdd\t9M\ra\x98\x83\xb7\x02\xc4\xd6\xeb\xb0\xb2Qf\xd2\xb40(\xc2\x8d/\xba.\xe8\xb3\x06\xccFI\x8d\x06\x11\xb2O\xb3\x95\x87\xd2\x87\x05\xee\x02h\x17\xa1V\xf5S\xaba\xc7zm\xf7,\xcb\xf2\xa7X\xb5\xd3\xfd\xed\xcc\xd9\x904n\xf5\xd94Zp\xa3$\'4\xdd\xc6}\xd3A\x89\xd7\xb0\xd9\xe5\xb00\x8cW\xea\xaf\xcdI\xe7\x91\xdbV\x90\xa4\xb5d\xcc\xeb\xba\xc5yO\xfb2\xf0\xb4"0\x83\xe8<\xcc ?\x7f\xce\xa1\xb3\x12\xc3}\xc1\xf2\xfeC\x0b\xac\xaf\x92\x85!\xcbkm\xf7\xac\x1f\xec\x0c@\xdcL\x0c\xb4d+\xea\xee\xd4=p)\x04\x11\x99\xa5C7\xcai<\xe0C\xef\xbd\xce\xee\x0f\xb1 \xb9\x93\x8fj\xc5\x8b\x8b$!\xd1\xd7\x8f\x87B4\x18\xb5o\xab\x1f:\xa1\xa9b\xa9\xb3\xe6Q#;C\xe9;k\x9c;"\xa3\x990\xd9\xa1\xbe\x10\xddG\xed\xe7_\xcaP\xbf\xd1=\x81?\x12\x924\xebu\x82T\xceg\x94J\xe7\x9c\xb0\x11\xde\xd2\n\xb2\xbeE\xea\xb3\x0e@sT\x0f:\x84\xc2@\xb4\xfa\x0b\xbfU\xb4\xf1c\x99\xa8\xe5\x98C\x9c\x99\x88\xcf\x97C\x11\r\xa5\xf8\xde\xfaF\xc0\xc6\x92\xbc\x87Ds\xd6\xdc\x04\xfb\xb8-\x80\xdf\x1b\xbc\xe4\xfc\xb1\xc8jxJ\xa5K\xdam\xc1K"e%$J\x9dVq\xa8\xd2\xd4\x98\x91K\xeb\xc7\xbd\xc1\x06=\xfc\xfa\x8f?e\xdf"\xc4g\xa3\xac\x0b<\xac\xdc"\x86NZg_\xf51T-\xa7\xeev1f7TZ[\x81\x97\xe2\x8aR\xe8\xad\x1aC\xbcxHO\x0ew)\xc7\xc6\x03\x85k\xaae\x13\xd0\xc7\x1bE\x85\xf3J\npq\xbc\x827\xf1\xf3N\x16\x88L!\xd2 \x0cL\n\x1d\x8a\xac(\x9e\xec\x7f\xe3\x1c\xe7!Ui\x8c\xd3\xba\xe7\xc7$\xaan\x9dP\x89\x00\x14\xceW\xec\xe2?\xb2\xbb\xd7\x16\x03\xb7\xfa\xd2\rM\xc4\xbaD\x05\xc3ks\xb0\xf0N\x1a\x1e\x97\x1d+\xe4\xe8h\x9a\xc0\x13llQ\xa1\x87$u\xb7\xb7\xc6\xb3\xb14\xb6\x04\x97N\xfb\x17\xef\xbc,3\x97 a|l\xe9;\x01\xcb@\x8e21z\x9e.\x979\xb9CadS\xa2\xdcUk\xa2+\x8bM\xef\xc8c\xad\xa8\xb6v\xb4|\xb0\x8a6\nd\xa1r\xba\xe3\xc6I&a\xdd\x89\xc0\xd6\xac\xa1\x0e\x92\xcd\x94\x8d!\xcb\xa4\xfd\xfa\x89\xa6D\xe2[\xb7&j\xc2\x90\xa7\xde\x88\xcc\xb7\xd6j\xd3\x02\xd8\x90x\xa2Y\xda\x97\xf4\xaf\xdb\x93\xf2`\x99})\xc2\x81-\xd0E\xcbP\xa02\xf6\xea\x06\xbaUo\x84 l\xea\xed\x12\x94S/vt"L\x1c\x82\x89p\xbd\xecd\xb0go\xd5\x97\r\xc1\xd1\xbf\xdf\xbdIK\x1cu^\xbb\x18\xd6\x04%:0\x8c\x82\x03\x08\x14S1_\x19\x97bxq\xaa\xa5Ho\xf7\xf8h.\'\x8e\x17\xf6PE\xf1\x10\xc3\xaeV!\xced\x95\xd6\xe5\xcfQ:\xb0\xf5Q\xda.\xa3\xf3\x92\x08\xf3\xef \xa2\x8cGu)I\xf7w\xc21{\x86\xe2\xe5\xa3\x04\x19\x0b\xe5\x18\x07?H2>o\xa0\x04\x96\xc3n\x90\xba\x0c\xbbXD\x00$HA0}r\x13\xba\x90\xdc\xceN-/\xbc\xe7\x9bO\xd42\xa3\x13^4\xe3\xaeQ\r\xac\xa6\x8a~\x9d\xfb\xd6\xe5tW%{\xc3'
p259
tp260
bI44
I0
F0.0
tp261
sS'halloffame'
p262
g3
(cdeap.tools.support
HallOfFame
p263
c__builtin__
object
p264
Ntp265
Rp266
(dp267
S'keys'
p268
(lp269
g3
(cdeap.creator
FitnessMulti
p270
g264
Ntp271
Rp272
(dp273
S'wvalues'
p274
(cnumpy.core.multiarray
scalar
p275
(g19
S'\xcc\xd8\xa5\xc40r\xd2?'
p276
tp277
Rp278
g275
(g19
S'\xb8\x16\xb1\xeb\xe7t\xa5\xbe'
p279
tp280
Rp281
tp282
sbag3
(g270
g264
Ntp283
Rp284
(dp285
g274
(g275
(g19
S'\xaa\x02\x06\xcb\xe9\x84\xd2?'
p286
tp287
Rp288
g275
(g19
S'\xd2eV\xedf\x9c\xa6\xbe'
p289
tp290
Rp291
tp292
sbag3
(g270
g264
Ntp293
Rp294
(dp295
g274
(g275
(g19
S'gx\xed)?\xe0\xd2?'
p296
tp297
Rp298
g275
(g19
S'\xaf\xbc\xf3\xa19\xd9\x95\xbe'
p299
tp300
Rp301
tp302
sbasS'items'
p303
(lp304
g3
(cdeap.creator
Individual
p305
g5
(lp306
F0.23109166775555234
aF0.7057219167023422
aF0.059052122628312276
aF0.9028117030241717
aF0.31045970519750965
aF0.8168197240369595
aF0.06118713151838606
aF0.2090139057615038
aF0.2995850523483504
aF0.2752183047909933
aF0.04305865554082611
aF0.05327977779137616
atp307
Rp308
(dp309
g237
g294
sbag3
(g305
g5
(lp310
F0.8417006380101849
aF0.25474169593233564
aF0.014993364787311392
aF0.9441435384752381
aF0.3811918188826622
aF0.13889628118143926
aF0.26302327266396175
aF0.30019760882503466
aF0.3438816043200654
aF0.2752183047909933
aF0.04305865554082611
aF0.05327977779137616
atp311
Rp312
(dp313
g237
g284
sbag3
(g305
g5
(lp314
F0.23109166775555234
aF0.25474169593233564
aF0.014993364787311392
aF0.9441435384752381
aF0.3811918188826622
aF0.13889628118143926
aF0.26302327266396175
aF0.30019760882503466
aF0.3438816043200654
aF0.2752183047909933
aF0.04305865554082611
aF0.05327977779137616
atp315
Rp316
(dp317
g237
g272
sbasS'maxsize'
p318
I3
sS'similar'
p319
coperator
eq
p320
sbsS'population'
p321
(lp322
g3
(g305
g5
(lp323
F0.8972010429969989
aF0.8005039672198802
aF0.016501359479151323
aF0.5910360875057725
aF0.4999647034209256
aF0.6212382183750921
aF0.9744433588858209
aF0.05539843553861401
aF0.4341006164970682
aF0.4048367742986606
aF0.7175204547927863
aF0.9582940603331481
atp324
Rp325
(dp326
g237
g3
(g270
g264
Ntp327
Rp328
(dp329
g274
(g275
(g19
S'\xa6\xe8\x8co\x07\xf8\xa3?'
p330
tp331
Rp332
g275
(g19
S'\xe1@\xc2=\xe8C}\xbe'
p333
tp334
Rp335
tp336
sbsbag3
(g305
g5
(lp337
F0.23109166775555234
aF0.8781053123138626
aF0.46345286179271505
aF0.2805132161447925
aF0.6054678753080773
aF0.85528099061936
aF0.698361392676801
aF0.553095526487086
aF0.8111770361629463
aF0.23239246546319858
aF0.5331944959002831
aF0.399152564765777
atp338
Rp339
(dp340
g237
g3
(g270
g264
Ntp341
Rp342
(dp343
g274
(g275
(g19
S'\xfb\xa6\xcf/t\xff\xce?'
p344
tp345
Rp346
g275
(g19
S'\xf7^\x8c\xf2\xb2\x85\xa2\xbe'
p347
tp348
Rp349
tp350
sbsbag3
(g305
g5
(lp351
F0.8196165416737329
aF0.46123938774474593
aF0.061378504322565974
aF0.7216382171790987
aF0.611591322426171
aF0.23985020595368167
aF0.5973977751371442
aF0.4442908157581148
aF0.8509036066435529
aF0.718256200101207
aF0.8636257628504165
aF0.4741295724287464
atp352
Rp353
(dp354
g237
g3
(g270
g264
Ntp355
Rp356
(dp357
g274
(g275
(g19
S'E\xc1\x89f\xb3\xb9\xbf?'
p358
tp359
Rp360
g275
(g19
S'q\xfa[\xaf=\x86\x91\xbe'
p361
tp362
Rp363
tp364
sbsbag3
(g305
g5
(lp365
F0.2515637523880454
aF0.02305072294973376
aF0.23772583255482993
aF0.7055602446586491
aF0.09587183167231139
aF0.06294553848178941
aF0.2470503329480871
aF0.21792052832259978
aF0.5827566063225421
aF0.8484680576443585
aF0.9520027547763857
aF0.040702488492958544
atp366
Rp367
(dp368
g237
g3
(g270
g264
Ntp369
Rp370
(dp371
g274
(g275
(g19
S'\xc3PS\xe5\x08\x0b\xcd?'
p372
tp373
Rp374
g275
(g19
S'"\xa9\xac %{\xa7\xbe'
p375
tp376
Rp377
tp378
sbsbag3
(g305
g5
(lp379
F0.10858645595111938
aF0.9627490619224655
aF0.6870373366781324
aF0.9129423661773762
aF0.7727639795275685
aF0.518511545102803
aF0.48945379139301226
aF0.48079405809795206
aF0.3978996946326152
aF0.6729603667335029
aF0.31368746615918075
aF0.8966389038614073
atp380
Rp381
(dp382
g237
g3
(g270
g264
Ntp383
Rp384
(dp385
g274
(g275
(g19
S'"f\xd3\xf2\xe7\xed\xac?'
p386
tp387
Rp388
g275
(g19
S'\x8c\x1c\x8c\xc5\xd2\x01|\xbe'
p389
tp390
Rp391
tp392
sbsbag3
(g305
g5
(lp393
F0.49761724205595637
aF0.6688417559015611
aF0.9190367425182105
aF0.6665032033352789
aF0.2808569885735811
aF0.7675330306119288
aF0.9208593850274949
aF0.6049090773262219
aF0.5881044909341485
aF0.8775689617417916
aF0.15873601033779194
aF0.07077248092850563
atp394
Rp395
(dp396
g237
g3
(g270
g264
Ntp397
Rp398
(dp399
g274
(g275
(g19
S'=_\xceP\xb3\xdb\xcf?'
p400
tp401
Rp402
g275
(g19
S'->\xfa\x95`\x9aq\xbe'
p403
tp404
Rp405
tp406
sbsbag3
(g305
g5
(lp407
F0.37797156514077224
aF0.5494778568997479
aF0.5915897400971808
aF0.010308587100138822
aF0.9765536771506813
aF0.04859677978254762
aF0.10553322904244522
aF0.1546929962576331
aF0.8985907883738837
aF0.2512702641386543
aF0.41409183132724015
aF0.9112889881504247
atp408
Rp409
(dp410
g237
g3
(g270
g264
Ntp411
Rp412
(dp413
g274
(g275
(g19
S'o\x8f1-&\x02\xa6?'
p414
tp415
Rp416
g275
(g19
S'5\x1f?\xbe\xd5\xa2{\xbe'
p417
tp418
Rp419
tp420
sbsbag3
(g305
g5
(lp421
F0.9519684583836935
aF0.14347805976223438
aF0.16616082256369913
aF0.41000084872394504
aF0.9504895679036611
aF0.16317386190892003
aF0.07709567474211665
aF0.9006334684109345
aF0.16012543401666512
aF0.23286001941944823
aF0.13415252403930444
aF0.44672414479125144
atp422
Rp423
(dp424
g237
g3
(g270
g264
Ntp425
Rp426
(dp427
g274
(g275
(g19
S'##qZ\xff\xec\xc4?'
p428
tp429
Rp430
g275
(g19
S'\x1f\x96\xc1l\x9f\xa5\x9e\xbe'
p431
tp432
Rp433
tp434
sbsbag3
(g305
g5
(lp435
F0.20017383276797185
aF0.3687352985529726
aF0.457148063858017
aF0.8284741906591006
aF0.5053875847882765
aF0.8252837757668702
aF0.4937723010586167
aF0.46611013976160853
aF0.4235622027820144
aF0.4131989675871034
aF0.48105369997479364
aF0.8123511110350307
atp436
Rp437
(dp438
g237
g3
(g270
g264
Ntp439
Rp440
(dp441
g274
(g275
(g19
S'\xce\xd2\x88\x93\xca\x98\xb3?'
p442
tp443
Rp444
g275
(g19
S'\xd5\xf1B\xc5\x0e\x1c\x91\xbe'
p445
tp446
Rp447
tp448
sbsbag3
(g305
g5
(lp449
F0.8417006380101849
aF0.25474169593233564
aF0.014993364787311392
aF0.9441435384752381
aF0.3782531079221306
aF0.034856913416189794
aF0.3553463448668649
aF0.6045300627052721
aF0.08953653517650473
aF0.4088322526311411
aF0.8020682823306376
aF0.01287335178020832
atp450
Rp451
(dp452
g237
g3
(g270
g264
Ntp453
Rp454
(dp455
g274
(g275
(g19
S'\xcaV]u\xa2\xee\xd0?'
p456
tp457
Rp458
g275
(g19
S'\xb7\x15G\xc8\xd0#\xa7\xbe'
p459
tp460
Rp461
tp462
sbsbag3
(g305
g5
(lp463
F0.5742081586928605
aF0.48574942853131553
aF0.3895088178769117
aF0.6290344488871827
aF0.6210894799576714
aF0.45858610737292926
aF0.8178681715366147
aF0.35671956596920495
aF0.34255204689281427
aF0.7763287462697664
aF0.969880786701194
aF0.4025874255336437
atp464
Rp465
(dp466
g237
g3
(g270
g264
Ntp467
Rp468
(dp469
g274
(g275
(g19
S'@\xc1\xd6\x15\xc3\xdc\xc7?'
p470
tp471
Rp472
g275
(g19
S'[\xfb5\xe3\xaa\xca\x9c\xbe'
p473
tp474
Rp475
tp476
sbsbag3
(g305
g5
(lp477
F0.865487770439611
aF0.6223175422383185
aF0.09272810755567051
aF0.6978266939339507
aF0.8404473326842706
aF0.31187857014644094
aF0.3124035333565125
aF0.6746520051804172
aF0.9904468891775406
aF0.5729561017158729
aF0.43807726801088154
aF0.41285984440018386
atp478
Rp479
(dp480
g237
g3
(g270
g264
Ntp481
Rp482
(dp483
g274
(g275
(g19
S'f\x12\xff\x94\xb2y\xc3?'
p484
tp485
Rp486
g275
(g19
S'\x1e8\x02\xc6Qz\x9c\xbe'
p487
tp488
Rp489
tp490
sbsbag3
(g305
g5
(lp491
F0.6987726934518269
aF0.3413125638163811
aF0.17261647435363447
aF0.9028117030241717
aF0.412483676923907
aF0.8798223209443514
aF0.909897359124504
aF0.8543203695945643
aF0.7266628275765987
aF0.04874340337403382
aF0.16086167682635222
aF0.24951011465641737
atp492
Rp493
(dp494
g237
g3
(g270
g264
Ntp495
Rp496
(dp497
g274
(g275
(g19
S'\x02\xbf5\xa3m\xb0\xce?'
p498
tp499
Rp500
g275
(g19
S'{\xa8->F`\x9d\xbe'
p501
tp502
Rp503
tp504
sbsbag3
(g305
g5
(lp505
F0.7252037296287521
aF0.8009332785216684
aF0.8966385115305571
aF0.2701311755061351
aF0.8328209172843971
aF0.7784003577004281
aF0.10491373050411679
aF0.8141493611263174
aF0.5270842117460761
aF0.9805424704461917
aF0.12426328266949349
aF0.5725922962172959
atp506
Rp507
(dp508
g237
g3
(g270
g264
Ntp509
Rp510
(dp511
g274
(g275
(g19
S'-\x12\x9aTK\xc4\xc3?'
p512
tp513
Rp514
g275
(g19
S'\x06\x7f\xb6\x83\xe6\x80\x92\xbe'
p515
tp516
Rp517
tp518
sbsbag3
(g305
g5
(lp519
F0.3504879341107081
aF0.15232548771491494
aF0.3527331388498116
aF0.5727023398054085
aF0.7302118498164404
aF0.8741010372341432
aF0.12002353395355847
aF0.3240681593105551
aF0.3829247094454521
aF0.280092635834316
aF0.9205787039163769
aF0.44840774716155307
atp520
Rp521
(dp522
g237
g3
(g270
g264
Ntp523
Rp524
(dp525
g274
(g275
(g19
S'\x8d\xcc0\x16\xf6\xe7\xc8?'
p526
tp527
Rp528
g275
(g19
S'\xd2`\xe3\xfb\x02\r\x95\xbe'
p529
tp530
Rp531
tp532
sbsbag3
(g305
g5
(lp533
F0.6959728516126396
aF0.549623861498483
aF0.9253105229330213
aF0.5981033079800977
aF0.8382823419637342
aF0.8902480173273941
aF0.7338706246493434
aF0.6918846062870477
aF0.8644708821098714
aF0.35990877181293035
aF0.2875811586358158
aF0.583267587082117
atp534
Rp535
(dp536
g237
g3
(g270
g264
Ntp537
Rp538
(dp539
g274
(g275
(g19
S'\xf8\x06"\xda\x1d\xcc\xc3?'
p540
tp541
Rp542
g275
(g19
S'$\xee@\x1f\xb2\x08\xa9\xbe'
p543
tp544
Rp545
tp546
sbsbag3
(g305
g5
(lp547
F0.17390797643149436
aF0.11515552618297575
aF0.7882833717275867
aF0.40427035671680756
aF0.31045970519750965
aF0.8168197240369595
aF0.06118713151838606
aF0.2090139057615038
aF0.2995850523483504
aF0.6425177417429272
aF0.09979284020650603
aF0.3454186085242189
atp548
Rp549
(dp550
g237
g3
(g270
g264
Ntp551
Rp552
(dp553
g274
(g275
(g19
S'\x82\x8eU\xeb\x1aO\xca?'
p554
tp555
Rp556
g275
(g19
S'2l\x17Zrc\xae\xbe'
p557
tp558
Rp559
tp560
sbsbag3
(g305
g5
(lp561
F0.8823219574034316
aF0.1810261071017415
aF0.7229994607048574
aF0.38436539319959895
aF0.860801045394722
aF0.4116627616897156
aF0.4230048115665124
aF0.7270223780632784
aF0.513018239988445
aF0.31793111776065663
aF0.5101431837418939
aF0.7721759849783963
atp562
Rp563
(dp564
g237
g3
(g270
g264
Ntp565
Rp566
(dp567
g274
(g275
(g19
S'\xad\xa9\xf1y\xbf]\xb6?'
p568
tp569
Rp570
g275
(g19
S'\xd0C/\x84f\xf2\x90\xbe'
p571
tp572
Rp573
tp574
sbsbag3
(g305
g5
(lp575
F0.8949504985601319
aF0.6228934745439237
aF0.6426495098779513
aF0.9112153927232871
aF0.6945109080017382
aF0.19784268082110257
aF0.09208512204724395
aF0.35118178523955423
aF0.93731815726179
aF0.12967782530177763
aF0.22898770747916863
aF0.8183406808041865
atp576
Rp577
(dp578
g237
g3
(g270
g264
Ntp579
Rp580
(dp581
g274
(g275
(g19
S'g^\xf8\xd3)\xa8\xb2?'
p582
tp583
Rp584
g275
(g19
S'E\xb9\r]1\xb5\x8f\xbe'
p585
tp586
Rp587
tp588
sbsbag3
(g305
g5
(lp589
F0.35174504109117743
aF0.8765418778670487
aF0.3340471010717372
aF0.5964031858274371
aF0.049576238982250276
aF0.6146395967116438
aF0.26630409645573916
aF0.45597192586583524
aF0.8246230284059353
aF0.7105636185730944
aF0.025327572832262946
aF0.26417761161694253
atp590
Rp591
(dp592
g237
g3
(g270
g264
Ntp593
Rp594
(dp595
g274
(g275
(g19
S'06\x95GD\xea\xc9?'
p596
tp597
Rp598
g275
(g19
S'\x90\x1c9\xf8\x9f?\xb4\xbe'
p599
tp600
Rp601
tp602
sbsbag3
(g305
g5
(lp603
F0.346455809113394
aF0.09767459144922708
aF0.1134251865000957
aF0.23522304785416692
aF0.5936866861152132
aF0.26959123636711224
aF0.8618673318299311
aF0.9428295300868123
aF0.066289864144504
aF0.9377878709895345
aF0.5220454080772772
aF0.5635042996519115
atp604
Rp605
(dp606
g237
g3
(g270
g264
Ntp607
Rp608
(dp609
g274
(g275
(g19
S'\xd3\xabNS\xbe\x1a\xbb?'
p610
tp611
Rp612
g275
(g19
S';Dc\x1a\xcd\xed\x8a\xbe'
p613
tp614
Rp615
tp616
sbsbag3
(g305
g5
(lp617
F0.49761724205595637
aF0.6688417559015611
aF0.9190367425182105
aF0.6665032033352789
aF0.2808569885735811
aF0.7675330306119288
aF0.3553463448668649
aF0.6045300627052721
aF0.08953653517650473
aF0.4088322526311411
aF0.8020682823306376
aF0.01287335178020832
atp618
Rp619
(dp620
g237
g3
(g270
g264
Ntp621
Rp622
(dp623
g274
(g275
(g19
S'\xb2\xf3O4\xae\x04\xcc?'
p624
tp625
Rp626
g275
(g19
S'\xf9L\x01yq\x02\xad\xbe'
p627
tp628
Rp629
tp630
sbsbag3
(g305
g5
(lp631
F0.8417006380101849
aF0.25474169593233564
aF0.014993364787311392
aF0.9441435384752381
aF0.3782531079221306
aF0.034856913416189794
aF0.9208593850274949
aF0.6049090773262219
aF0.5881044909341485
aF0.8775689617417916
aF0.15873601033779194
aF0.07077248092850563
atp632
Rp633
(dp634
g237
g3
(g270
g264
Ntp635
Rp636
(dp637
g274
(g275
(g19
S'}\x00\x8f\x9d9$\xca?'
p638
tp639
Rp640
g275
(g19
S'b\x05\xfc\xe9\xb8\n\xa5\xbe'
p641
tp642
Rp643
tp644
sbsbag3
(g305
g5
(lp645
F0.6235367421998822
aF0.33097407824115277
aF0.45090108473649904
aF0.21251724292792018
aF0.670506330194582
aF0.7361740082662541
aF0.3013313711089529
aF0.0777481105222112
aF0.6831622321748514
aF0.9207558324346786
aF0.9571915968463734
aF0.6338102677701647
atp646
Rp647
(dp648
g237
g3
(g270
g264
Ntp649
Rp650
(dp651
g274
(g275
(g19
S'\xd3\x06\xfcU\x8d\xa3\xbd?'
p652
tp653
Rp654
g275
(g19
S'T\xcd1\xc3\xbdZ\xc6\xbe'
p655
tp656
Rp657
tp658
sbsbag3
(g305
g5
(lp659
F0.8417006380101849
aF0.25474169593233564
aF0.014993364787311392
aF0.9441435384752381
aF0.3782531079221306
aF0.034856913416189794
aF0.3553463448668649
aF0.6045300627052721
aF0.7166970361719888
aF0.4088322526311411
aF0.8020682823306376
aF0.9845988767672073
atp660
Rp661
(dp662
g237
g3
(g270
g264
Ntp663
Rp664
(dp665
g274
(g275
(g19
S'\xa2{\xe0\xf9\xb8J\x90?'
p666
tp667
Rp668
g275
(g19
S'\xc9\x0c\xf6\xcd\x02Tc\xbe'
p669
tp670
Rp671
tp672
sbsbag3
(g305
g5
(lp673
F0.49761724205595637
aF0.6688417559015611
aF0.9190367425182105
aF0.6665032033352789
aF0.412483676923907
aF0.8798223209443514
aF0.909897359124504
aF0.8543203695945643
aF0.7266628275765987
aF0.04874340337403382
aF0.16086167682635222
aF0.24951011465641737
atp674
Rp675
(dp676
g237
g3
(g270
g264
Ntp677
Rp678
(dp679
g274
(g275
(g19
S'}bP\xa6\xaa4\xcd?'
p680
tp681
Rp682
g275
(g19
S'N\xd2\x99c\xaba\xa2\xbe'
p683
tp684
Rp685
tp686
sbsbag3
(g305
g5
(lp687
F0.6987726934518269
aF0.3413125638163811
aF0.17261647435363447
aF0.9028117030241717
aF0.2808569885735811
aF0.7675330306119288
aF0.9208593850274949
aF0.6049090773262219
aF0.5881044909341485
aF0.8775689617417916
aF0.15873601033779194
aF0.07077248092850563
atp688
Rp689
(dp690
g237
g3
(g270
g264
Ntp691
Rp692
(dp693
g274
(g275
(g19
S'\x1d\xc7\xb2\ny^\xcf?'
p694
tp695
Rp696
g275
(g19
S'\xc2J`\xf5.\xf1\x91\xbe'
p697
tp698
Rp699
tp700
sbsbag3
(g305
g5
(lp701
F0.8417006380101849
aF0.25474169593233564
aF0.014993364787311392
aF0.9441435384752381
aF0.3782531079221306
aF0.034856913416189794
aF0.3553463448668649
aF0.6045300627052721
aF0.08953653517650473
aF0.4088322526311411
aF0.5331944959002831
aF0.399152564765777
atp702
Rp703
(dp704
g237
g3
(g270
g264
Ntp705
Rp706
(dp707
g274
(g275
(g19
S'Ub\x07\x99L%\xbd?'
p708
tp709
Rp710
g275
(g19
S'\x91\x9f\x8fAg\xe5\x9b\xbe'
p711
tp712
Rp713
tp714
sbsbag3
(g305
g5
(lp715
F0.23109166775555234
aF0.8781053123138626
aF0.46345286179271505
aF0.2805132161447925
aF0.6054678753080773
aF0.85528099061936
aF0.698361392676801
aF0.553095526487086
aF0.8111770361629463
aF0.23239246546319858
aF0.8020682823306376
aF0.01287335178020832
atp716
Rp717
(dp718
g237
g3
(g270
g264
Ntp719
Rp720
(dp721
g274
(g275
(g19
S'\x93@\x01{\x1a\xac\xcc?'
p722
tp723
Rp724
g275
(g19
S'+w\xd2\xdf\xa6p\xb2\xbe'
p725
tp726
Rp727
tp728
sbsbag3
(g305
g5
(lp729
F0.826522910947395
aF0.8192960076541682
aF0.10215314828324085
aF0.7521716997950176
aF0.354648736986115
aF0.51473977788153
aF0.950339936260677
aF0.012159462749326555
aF0.7074940795890338
aF0.5226414058276431
aF0.8882604047002751
aF0.9915611564535358
atp730
Rp731
(dp732
g237
g3
(g270
g264
Ntp733
Rp734
(dp735
g274
(g275
(g19
S'\x1e\xa1V \xdfX\xa1?'
p736
tp737
Rp738
g275
(g19
S'cB\x8b<\xd3\x10u\xbe'
p739
tp740
Rp741
tp742
sbsbag3
(g305
g5
(lp743
F0.8274548816265221
aF0.7057219167023422
aF0.059052122628312276
aF0.25763406217607443
aF0.3811918188826622
aF0.13889628118143926
aF0.26302327266396175
aF0.30019760882503466
aF0.3438816043200654
aF0.2752183047909933
aF0.04305865554082611
aF0.05327977779137616
atp744
Rp745
(dp746
g237
g3
(g270
g264
Ntp747
Rp748
(dp749
g274
(g275
(g19
S'\xa0\xf4n\x0cJ\xb4\xd1?'
p750
tp751
Rp752
g275
(g19
S'\xb9\x8be1J\xce\xb5\xbe'
p753
tp754
Rp755
tp756
sbsbag3
(g305
g5
(lp757
F0.7304483408605231
aF0.11921482387252069
aF0.6425251082740951
aF0.3042053411305653
aF0.7807163134028782
aF0.5139089330522529
aF0.27553126179162
aF0.6843837918011594
aF0.945718027394036
aF0.5661431681253449
aF0.6023453973494256
aF0.5501435283188039
atp758
Rp759
(dp760
g237
g3
(g270
g264
Ntp761
Rp762
(dp763
g274
(g275
(g19
S'\xc0|\xfe\xcf\x1a\xa4\xc2?'
p764
tp765
Rp766
g275
(g19
S'}Ny\x01\xcf\xda\x93\xbe'
p767
tp768
Rp769
tp770
sbsbag3
(g305
g5
(lp771
F0.26387439314087335
aF0.7500471093385114
aF0.991688756210372
aF0.2749916301769193
aF0.7086910819155554
aF0.26785426643829324
aF0.8839822301718037
aF0.655865421082819
aF0.03057566495613373
aF0.05026667203616242
aF0.3644585890858013
aF0.9646851452607974
atp772
Rp773
(dp774
g237
g3
(g270
g264
Ntp775
Rp776
(dp777
g274
(g275
(g19
S'bS&\xbe\xd2\xf5\xa7?'
p778
tp779
Rp780
g275
(g19
S'\xaa!\x1b\xde_\xd3v\xbe'
p781
tp782
Rp783
tp784
sbsbag3
(g305
g5
(lp785
F0.3636662155115107
aF0.8517789937164908
aF0.08279514694734547
aF0.21867949708753898
aF0.15569388739255619
aF0.1891097784571818
aF0.2423092553043149
aF0.5420619366551909
aF0.7486655380895242
aF0.9139057536659729
aF0.43193106487106003
aF0.12245172956232186
atp786
Rp787
(dp788
g237
g3
(g270
g264
Ntp789
Rp790
(dp791
g274
(g275
(g19
S'\xfd\xbf\xfa6\xc1v\xca?'
p792
tp793
Rp794
g275
(g19
S'7\xf5\x88\xa3\xa7\xf5\xa6\xbe'
p795
tp796
Rp797
tp798
sbsbag3
(g305
g5
(lp799
F0.9840253891394948
aF0.08821424808207168
aF0.7811081280891107
aF0.7097459803584508
aF0.9041455377714658
aF0.2909881299184367
aF0.007408875799651438
aF0.33647741378168305
aF0.40499991964144355
aF0.5890035144485758
aF0.8467675994471446
aF0.3858331080943814
atp800
Rp801
(dp802
g237
g3
(g270
g264
Ntp803
Rp804
(dp805
g274
(g275
(g19
S'2\xec\xf4\x04;$\xc9?'
p806
tp807
Rp808
g275
(g19
S'\x8d\xa6\x1d\x97x\xd8\xa3\xbe'
p809
tp810
Rp811
tp812
sbsbag3
(g305
g5
(lp813
F0.7588497505295022
aF0.16008933531972602
aF0.9985860913015195
aF0.17895082022865338
aF0.6062339301474158
aF0.5933020209397346
aF0.007679840353000733
aF0.2237552131077707
aF0.4215602350089128
aF0.5105897492621368
aF0.3008666701515855
aF0.5407255668703242
atp814
Rp815
(dp816
g237
g3
(g270
g264
Ntp817
Rp818
(dp819
g274
(g275
(g19
S'\x18\xd5Y\xcby\xb3\xc4?'
p820
tp821
Rp822
g275
(g19
S'jIT\x11F\x89\x9d\xbe'
p823
tp824
Rp825
tp826
sbsbag3
(g305
g5
(lp827
F0.49761724205595637
aF0.6688417559015611
aF0.9190367425182105
aF0.6665032033352789
aF0.412483676923907
aF0.8798223209443514
aF0.909897359124504
aF0.8543203695945643
aF0.7266628275765987
aF0.23239246546319858
aF0.5331944959002831
aF0.399152564765777
atp828
Rp829
(dp830
g237
g3
(g270
g264
Ntp831
Rp832
(dp833
g274
(g275
(g19
S'\xdb\x0e\xa44\xb2)\xcc?'
p834
tp835
Rp836
g275
(g19
S'jB\x17e\xd2[\x9a\xbe'
p837
tp838
Rp839
tp840
sbsbag3
(g305
g5
(lp841
F0.23109166775555234
aF0.8781053123138626
aF0.46345286179271505
aF0.2805132161447925
aF0.6054678753080773
aF0.85528099061936
aF0.698361392676801
aF0.553095526487086
aF0.8111770361629463
aF0.04874340337403382
aF0.16086167682635222
aF0.24951011465641737
atp842
Rp843
(dp844
g237
g3
(g270
g264
Ntp845
Rp846
(dp847
g274
(g275
(g19
S"\x86'8\x8f\x8a\x11\xd0?"
p848
tp849
Rp850
g275
(g19
S'\xffZ\xe9Z\x17\x9e\xa1\xbe'
p851
tp852
Rp853
tp854
sbsbag3
(g305
g5
(lp855
F0.2515637523880454
aF0.02305072294973376
aF0.9190367425182105
aF0.6665032033352789
aF0.412483676923907
aF0.8798223209443514
aF0.909897359124504
aF0.8543203695945643
aF0.7266628275765987
aF0.04874340337403382
aF0.16086167682635222
aF0.24951011465641737
atp856
Rp857
(dp858
g237
g3
(g270
g264
Ntp859
Rp860
(dp861
g274
(g275
(g19
S'\xddt\xdfD(v\xcd?'
p862
tp863
Rp864
g275
(g19
S'\x0b\xaah\xd7cC\xa1\xbe'
p865
tp866
Rp867
tp868
sbsbag3
(g305
g5
(lp869
F0.49761724205595637
aF0.6688417559015611
aF0.23772583255482993
aF0.7055602446586491
aF0.09587183167231139
aF0.06294553848178941
aF0.2470503329480871
aF0.4934242329072991
aF0.5827566063225421
aF0.8484680576443585
aF0.9520027547763857
aF0.040702488492958544
atp870
Rp871
(dp872
g237
g3
(g270
g264
Ntp873
Rp874
(dp875
g274
(g275
(g19
S'2A\x9a\xfb\xef\x07\xcc?'
p876
tp877
Rp878
g275
(g19
S'\xddN\xeb\x12\xb2\x10\xb2\xbe'
p879
tp880
Rp881
tp882
sbsbag3
(g305
g5
(lp883
F0.6987726934518269
aF0.3413125638163811
aF0.17261647435363447
aF0.9028117030241717
aF0.31045970519750965
aF0.8168197240369595
aF0.06118713151838606
aF0.2090139057615038
aF0.2995850523483504
aF0.6425177417429272
aF0.09979284020650603
aF0.3454186085242189
atp884
Rp885
(dp886
g237
g3
(g270
g264
Ntp887
Rp888
(dp889
g274
(g275
(g19
S'\x12\xe2\xaf\xdb\x89\x82\xc9?'
p890
tp891
Rp892
g275
(g19
S'F\xc5\xab\xff\xe2\xa4\xa4\xbe'
p893
tp894
Rp895
tp896
sbsbag3
(g305
g5
(lp897
F0.17390797643149436
aF0.11515552618297575
aF0.7882833717275867
aF0.40427035671680756
aF0.2808569885735811
aF0.7675330306119288
aF0.9208593850274949
aF0.6049090773262219
aF0.5881044909341485
aF0.8775689617417916
aF0.15873601033779194
aF0.07077248092850563
atp898
Rp899
(dp900
g237
g3
(g270
g264
Ntp901
Rp902
(dp903
g274
(g275
(g19
S'e1\xee\xc11\xeb\xcf?'
p904
tp905
Rp906
g275
(g19
S'@\x1c\xec\xe4<.n\xbe'
p907
tp908
Rp909
tp910
sbsbag3
(g305
g5
(lp911
F0.49761724205595637
aF0.6688417559015611
aF0.9190367425182105
aF0.9028117030241717
aF0.412483676923907
aF0.8798223209443514
aF0.909897359124504
aF0.8543203695945643
aF0.7266628275765987
aF0.04874340337403382
aF0.16086167682635222
aF0.24951011465641737
atp912
Rp913
(dp914
g237
g3
(g270
g264
Ntp915
Rp916
(dp917
g274
(g275
(g19
S'\x13\xca\xf5\x82\x8a\x94\xcd?'
p918
tp919
Rp920
g275
(g19
S'=\x14\x18\xb5/#\x98\xbe'
p921
tp922
Rp923
tp924
sbsbag3
(g305
g5
(lp925
F0.6987726934518269
aF0.3413125638163811
aF0.17261647435363447
aF0.9028117030241717
aF0.412483676923907
aF0.85528099061936
aF0.698361392676801
aF0.553095526487086
aF0.8111770361629463
aF0.23239246546319858
aF0.5331944959002831
aF0.399152564765777
atp926
Rp927
(dp928
g237
g3
(g270
g264
Ntp929
Rp930
(dp931
g274
(g275
(g19
S'H~\x84\x89\x8e^\xce?'
p932
tp933
Rp934
g275
(g19
S'\xc8\x0f\xa5\x94XD\xa5\xbe'
p935
tp936
Rp937
tp938
sbsbag3
(g305
g5
(lp939
F0.8417006380101849
aF0.25474169593233564
aF0.014993364787311392
aF0.9441435384752381
aF0.3782531079221306
aF0.034856913416189794
aF0.3553463448668649
aF0.6045300627052721
aF0.08953653517650473
aF0.4088322526311411
aF0.15873601033779194
aF0.07077248092850563
atp940
Rp941
(dp942
g237
g3
(g270
g264
Ntp943
Rp944
(dp945
g274
(g275
(g19
S'A\xc7z\xd7\xbd]\xd0?'
p946
tp947
Rp948
g275
(g19
S'Z\xb6\x1d\x9fg\xbe\xad\xbe'
p949
tp950
Rp951
tp952
sbsbag3
(g305
g5
(lp953
F0.23109166775555234
aF0.8781053123138626
aF0.46345286179271505
aF0.2805132161447925
aF0.6054678753080773
aF0.8798223209443514
aF0.909897359124504
aF0.8543203695945643
aF0.7266628275765987
aF0.04874340337403382
aF0.16086167682635222
aF0.24951011465641737
atp954
Rp955
(dp956
g237
g3
(g270
g264
Ntp957
Rp958
(dp959
g274
(g275
(g19
S'@\xc3K\xb8\xbb\xeb\xcc?'
p960
tp961
Rp962
g275
(g19
S'\xf0\xd9\xfa\xec\x18T\x94\xbe'
p963
tp964
Rp965
tp966
sbsbag3
(g305
g5
(lp967
F0.39221167108712185
aF0.8935446308531181
aF0.18427982532321407
aF0.1656957081921938
aF0.7241641066933299
aF0.8458833043105849
aF0.14174975649084998
aF0.27380606560048826
aF0.2548365754482649
aF0.12120001797444879
aF0.6954380429429174
aF0.7717700707503128
atp968
Rp969
(dp970
g237
g3
(g270
g264
Ntp971
Rp972
(dp973
g274
(g275
(g19
S'\x87h\xf0\xac\xe5x\xb4?'
p974
tp975
Rp976
g275
(g19
S'\xeb\xf40d\xf5l\x87\xbe'
p977
tp978
Rp979
tp980
sbsbag3
(g305
g5
(lp981
F0.49761724205595637
aF0.6688417559015611
aF0.9190367425182105
aF0.6665032033352789
aF0.2808569885735811
aF0.7675330306119288
aF0.9208593850274949
aF0.6049090773262219
aF0.5881044909341485
aF0.8775689617417916
aF0.8020682823306376
aF0.01287335178020832
atp982
Rp983
(dp984
g237
g3
(g270
g264
Ntp985
Rp986
(dp987
g274
(g275
(g19
S'\x10:\x86\xdb\xfe\xf7\xcf?'
p988
tp989
Rp990
g275
(g19
S'\x13\xf8\x15)\x92bR\xbe'
p991
tp992
Rp993
tp994
sbsbag3
(g305
g5
(lp995
F0.6987726934518269
aF0.3413125638163811
aF0.17261647435363447
aF0.6665032033352789
aF0.2808569885735811
aF0.7675330306119288
aF0.9208593850274949
aF0.6049090773262219
aF0.5881044909341485
aF0.8775689617417916
aF0.15873601033779194
aF0.07077248092850563
atp996
Rp997
(dp998
g237
g3
(g270
g264
Ntp999
Rp1000
(dp1001
g274
(g275
(g19
S'b4\xba1\xb3\xfe\xce?'
p1002
tp1003
Rp1004
g275
(g19
S'x\xe5\xf5\x97\xf1\xe2\xa8\xbe'
p1005
tp1006
Rp1007
tp1008
sbsbag3
(g305
g5
(lp1009
F0.8967167853629736
aF0.5013774519447206
aF0.06481305377461277
aF0.08152938316707847
aF0.39563807830483366
aF0.34641935409792146
aF0.8191214166564181
aF0.6501369987307237
aF0.981649440954696
aF0.27457309242299077
aF0.6405824976014832
aF0.566330388506234
atp1010
Rp1011
(dp1012
g237
g3
(g270
g264
Ntp1013
Rp1014
(dp1015
g274
(g275
(g19
S'\xcd*]\xa6\x85t\xbc?'
p1016
tp1017
Rp1018
g275
(g19
S'^\xf3\xe4\xc7\xfa\x18\x9f\xbe'
p1019
tp1020
Rp1021
tp1022
sbsbag3
(g305
g5
(lp1023
F0.3203961759365104
aF0.8811518556305185
aF0.5262638342143806
aF0.20311258496291895
aF0.43950985752887106
aF0.5400074353527546
aF0.593615442058986
aF0.5092273112437536
aF0.8981215787992827
aF0.6372288246926033
aF0.8392547524186106
aF0.003816969841038076
atp1024
Rp1025
(dp1026
g237
g3
(g270
g264
Ntp1027
Rp1028
(dp1029
g274
(g275
(g19
S'k\xbb\xa2\xfd6\x81\xce?'
p1030
tp1031
Rp1032
g275
(g19
S'^\x10!\xec]2\xa4\xbe'
p1033
tp1034
Rp1035
tp1036
sbsbag3
(g305
g5
(lp1037
F0.7856139802838777
aF0.43052804981264037
aF0.5386600279043007
aF0.44460090665965457
aF0.9639944276582783
aF0.6952298808473041
aF0.2988750904215822
aF0.7003620511469938
aF0.05265342007470841
aF0.35253310517390135
aF0.9491682825385803
aF0.7033317943304577
atp1038
Rp1039
(dp1040
g237
g3
(g270
g264
Ntp1041
Rp1042
(dp1043
g274
(g275
(g19
S'\x88)<a9U\xba?'
p1044
tp1045
Rp1046
g275
(g19
S'\x17u<&\xa8\xfb\x87\xbe'
p1047
tp1048
Rp1049
tp1050
sbsbag3
(g305
g5
(lp1051
F0.6511673001327899
aF0.9347062381753846
aF0.2037992421016772
aF0.39782623151274354
aF0.3647841610581323
aF0.043541488638357495
aF0.4528597216269852
aF0.006297714285541822
aF0.9791167046356053
aF0.45765979778308685
aF0.48714040041536844
aF0.9986481733070826
atp1052
Rp1053
(dp1054
g237
g3
(g270
g264
Ntp1055
Rp1056
(dp1057
g274
(g275
(g19
S'\xd3r\xe1\xf3=P\x98?'
p1058
tp1059
Rp1060
g275
(g19
S'\xb8cX\x8a\xeb\xf2k\xbe'
p1061
tp1062
Rp1063
tp1064
sbsbag3
(g305
g5
(lp1065
F0.672577592740021
aF0.3255447522020015
aF0.22570868678587086
aF0.736467715566807
aF0.767477255118155
aF0.30313090116105823
aF0.03649967904767393
aF0.0022040724054385175
aF0.9308132567767154
aF0.5597829300842629
aF0.11677566057819744
aF0.41089543753585234
atp1066
Rp1067
(dp1068
g237
g3
(g270
g264
Ntp1069
Rp1070
(dp1071
g274
(g275
(g19
S'\x84\x9d\xc1u\x95\xfa\xc4?'
p1072
tp1073
Rp1074
g275
(g19
S'lr%,\x8c\xa8\x97\xbe'
p1075
tp1076
Rp1077
tp1078
sbsbag3
(g305
g5
(lp1079
F0.7174891509229077
aF0.514031823687011
aF0.4908250885342652
aF0.4820864681188153
aF0.07888750533368816
aF0.2931392505236359
aF0.5557149393512238
aF0.6964287053064813
aF0.07536204840502869
aF0.8728397770735788
aF0.3102407407093615
aF0.803192620267645
atp1080
Rp1081
(dp1082
g237
g3
(g270
g264
Ntp1083
Rp1084
(dp1085
g274
(g275
(g19
S'@T\x80\x18<\xfd\xb0?'
p1086
tp1087
Rp1088
g275
(g19
S')j^\x18\x9b\xaa}\xbe'
p1089
tp1090
Rp1091
tp1092
sbsbag3
(g305
g5
(lp1093
F0.9032441640130197
aF0.40885855055010667
aF0.3845057725780805
aF0.35351540980866847
aF0.21806033709200545
aF0.6591572916003465
aF0.016033222596090746
aF0.415641267951961
aF0.05497348958509496
aF0.03512352600684021
aF0.5131454199083587
aF0.016298987322858505
atp1094
Rp1095
(dp1096
g237
g3
(g270
g264
Ntp1097
Rp1098
(dp1099
g274
(g275
(g19
S"'\\F\xaa\xd5C\xd0?"
p1100
tp1101
Rp1102
g275
(g19
S'\xa5\xffh$N\xfa\xad\xbe'
p1103
tp1104
Rp1105
tp1106
sbsbag3
(g305
g5
(lp1107
F0.8274548816265221
aF0.7057219167023422
aF0.059052122628312276
aF0.25763406217607443
aF0.3782531079221306
aF0.034856913416189794
aF0.3553463448668649
aF0.6045300627052721
aF0.08953653517650473
aF0.4088322526311411
aF0.15873601033779194
aF0.07077248092850563
atp1108
Rp1109
(dp1110
g237
g3
(g270
g264
Ntp1111
Rp1112
(dp1113
g274
(g275
(g19
S'\xb2i4*\x91r\xd1?'
p1114
tp1115
Rp1116
g275
(g19
S'<{\xe0\x01\x94\xfb\xba\xbe'
p1117
tp1118
Rp1119
tp1120
sbsbag3
(g305
g5
(lp1121
F0.8417006380101849
aF0.25474169593233564
aF0.014993364787311392
aF0.9441435384752381
aF0.3811918188826622
aF0.13889628118143926
aF0.26302327266396175
aF0.30019760882503466
aF0.3438816043200654
aF0.2752183047909933
aF0.04305865554082611
aF0.05327977779137616
atp1122
Rp1123
(dp1124
g237
g3
(g270
g264
Ntp1125
Rp1126
(dp1127
g274
g292
sbsbag3
(g305
g5
(lp1128
F0.23109166775555234
aF0.7057219167023422
aF0.059052122628312276
aF0.25763406217607443
aF0.3811918188826622
aF0.13889628118143926
aF0.26302327266396175
aF0.30019760882503466
aF0.3438816043200654
aF0.2752183047909933
aF0.04305865554082611
aF0.05327977779137616
atp1129
Rp1130
(dp1131
g237
g3
(g270
g264
Ntp1132
Rp1133
(dp1134
g274
(g275
(g19
S'\xb6\x99\x89k\x85\xbd\xd1?'
p1135
tp1136
Rp1137
g275
(g19
S'bF\x9d\x1av\x11\xbe\xbe'
p1138
tp1139
Rp1140
tp1141
sbsbag3
(g305
g5
(lp1142
F0.8274548816265221
aF0.8781053123138626
aF0.46345286179271505
aF0.2805132161447925
aF0.6054678753080773
aF0.85528099061936
aF0.698361392676801
aF0.553095526487086
aF0.8111770361629463
aF0.04874340337403382
aF0.16086167682635222
aF0.24951011465641737
atp1143
Rp1144
(dp1145
g237
g3
(g270
g264
Ntp1146
Rp1147
(dp1148
g274
(g275
(g19
S'S\xb9\xd9\xc6/?\xcf?'
p1149
tp1150
Rp1151
g275
(g19
S'JU\xbe\xf6\xc1Y\xa5\xbe'
p1152
tp1153
Rp1154
tp1155
sbsbag3
(g305
g5
(lp1156
F0.49761724205595637
aF0.6688417559015611
aF0.9190367425182105
aF0.6665032033352789
aF0.2808569885735811
aF0.7675330306119288
aF0.9208593850274949
aF0.6045300627052721
aF0.08953653517650473
aF0.4088322526311411
aF0.15873601033779194
aF0.07077248092850563
atp1157
Rp1158
(dp1159
g237
g3
(g270
g264
Ntp1160
Rp1161
(dp1162
g274
(g275
(g19
S'@\x92\xe2"\xeb_\xcd?'
p1163
tp1164
Rp1165
g275
(g19
S'\xc3\xfa\x85\xc3Yn\xb0\xbe'
p1166
tp1167
Rp1168
tp1169
sbsbag3
(g305
g5
(lp1170
F0.8417006380101849
aF0.25474169593233564
aF0.014993364787311392
aF0.9441435384752381
aF0.3782531079221306
aF0.034856913416189794
aF0.3553463448668649
aF0.6049090773262219
aF0.5881044909341485
aF0.8775689617417916
aF0.15873601033779194
aF0.07077248092850563
atp1171
Rp1172
(dp1173
g237
g3
(g270
g264
Ntp1174
Rp1175
(dp1176
g274
(g275
(g19
S'\xc3.f\x8b2r\xca?'
p1177
tp1178
Rp1179
g275
(g19
S'\x0b\xb4yG\xc4\x8a\xa2\xbe'
p1180
tp1181
Rp1182
tp1183
sbsbag3
(g305
g5
(lp1184
F0.4775427605046215
aF0.5358565482066043
aF0.13020976641404536
aF0.07569837525669154
aF0.5213199627375198
aF0.7604754337623268
aF0.7871685537676129
aF0.26118017617882083
aF0.5066537017214285
aF0.4860589302742039
aF0.29917100294744614
aF0.09648864139840219
atp1185
Rp1186
(dp1187
g237
g3
(g270
g264
Ntp1188
Rp1189
(dp1190
g274
(g275
(g19
S'3\x86ZR\xa4\xab\xcf?'
p1191
tp1192
Rp1193
g275
(g19
S'3\xa1\xe9wGH\xaa\xbe'
p1194
tp1195
Rp1196
tp1197
sbsbag3
(g305
g5
(lp1198
F0.05323544057353102
aF0.913127847107724
aF0.03285064950155103
aF0.14993702560767397
aF0.40067404112216765
aF0.13917431719658346
aF0.08002964084424247
aF0.4576333397959065
aF0.09594983258398782
aF0.5315379357186388
aF0.08785349864797676
aF0.5374079213825456
atp1199
Rp1200
(dp1201
g237
g3
(g270
g264
Ntp1202
Rp1203
(dp1204
g274
(g275
(g19
S'_$\xca\x06\xa1_\xb7?'
p1205
tp1206
Rp1207
g275
(g19
S'\xe5\xdc\x08\xd1g\xe2\x91\xbe'
p1208
tp1209
Rp1210
tp1211
sbsbag3
(g305
g5
(lp1212
F0.9171228288865136
aF0.33506974562978364
aF0.615374366662313
aF0.7908259330703199
aF0.450197865632312
aF0.6467600180148328
aF0.7450665527852526
aF0.09808429398095841
aF0.341461620532427
aF0.7278026821970243
aF0.3682073289816361
aF0.5463690828674032
atp1213
Rp1214
(dp1215
g237
g3
(g270
g264
Ntp1216
Rp1217
(dp1218
g274
(g275
(g19
S'\xc3\xf3Y\xdf\x1cU\xc3?'
p1219
tp1220
Rp1221
g275
(g19
S'u\x02]iBj\x95\xbe'
p1222
tp1223
Rp1224
tp1225
sbsbag3
(g305
g5
(lp1226
F0.2666047660448395
aF0.7052442816187673
aF0.20941535168945158
aF0.51254272095002
aF0.3660554754903158
aF0.590316794299847
aF0.7779095400853975
aF0.5919964037272265
aF0.766228759360375
aF0.3746339713149075
aF0.7505502945224892
aF0.27784848039846155
atp1227
Rp1228
(dp1229
g237
g3
(g270
g264
Ntp1230
Rp1231
(dp1232
g274
(g275
(g19
S'R\x81N?\x98\xa5\xcb?'
p1233
tp1234
Rp1235
g275
(g19
S'\x04\x03\xc5\xc1\xfe\x0e\xb5\xbe'
p1236
tp1237
Rp1238
tp1239
sbsbag3
(g305
g5
(lp1240
F0.09138200119527917
aF0.177373661106758
aF0.4519812113761591
aF0.40209423365385755
aF0.3667448244006526
aF0.45784558964928723
aF0.9525288764306109
aF0.1984358407025819
aF0.11044241458807746
aF0.9708619522772297
aF0.07094546815015346
aF0.33527412843048754
atp1241
Rp1242
(dp1243
g237
g3
(g270
g264
Ntp1244
Rp1245
(dp1246
g274
(g275
(g19
S'\xa5e\x18K\x08\xac\xc9?'
p1247
tp1248
Rp1249
g275
(g19
S'\x85/6\x1e\xddl\xd3\xbe'
p1250
tp1251
Rp1252
tp1253
sbsbag3
(g305
g5
(lp1254
F0.7715760945541518
aF0.9771804233442543
aF0.4969289870981789
aF0.568175643533191
aF0.09136558288932162
aF0.9335242013209507
aF0.4719134160306926
aF0.5573729843744438
aF0.9100279432585389
aF0.2030948250270751
aF0.5372819976064704
aF0.3520150924003087
atp1255
Rp1256
(dp1257
g237
g3
(g270
g264
Ntp1258
Rp1259
(dp1260
g274
(g275
(g19
S'A\xc5\x03A\x9a9\xd0?'
p1261
tp1262
Rp1263
g275
(g19
S'\xaf\x15lS\xfa\xd0\xa8\xbe'
p1264
tp1265
Rp1266
tp1267
sbsbag3
(g305
g5
(lp1268
F0.04389569707343166
aF0.053755253710103146
aF0.71655529607317
aF0.9953233032966875
aF0.7284885310015474
aF0.9226218997061633
aF0.017340891167097694
aF0.8771038644309386
aF0.48819195451120545
aF0.7878992465074407
aF0.7657651884729275
aF0.2882594751140938
atp1269
Rp1270
(dp1271
g237
g3
(g270
g264
Ntp1272
Rp1273
(dp1274
g274
(g275
(g19
S'\n\x9fH\x1c\xc6\x13\xcb?'
p1275
tp1276
Rp1277
g275
(g19
S'\xc2\xa8\xa5.]\x86\xa1\xbe'
p1278
tp1279
Rp1280
tp1281
sbsbag3
(g305
g5
(lp1282
F0.3618154593489342
aF0.18346977997071157
aF0.8025927761249011
aF0.43785828073794475
aF0.8345926793328814
aF0.8674740902103967
aF0.9349847056301926
aF0.1663508438935526
aF0.6332306402216248
aF0.5693301661641731
aF0.37478070682379705
aF0.5295271482658247
atp1283
Rp1284
(dp1285
g237
g3
(g270
g264
Ntp1286
Rp1287
(dp1288
g274
(g275
(g19
S'U\xf8\xd0I5\x8a\xc4?'
p1289
tp1290
Rp1291
g275
(g19
S'\x85<\\\xa5\x1ce\x9e\xbe'
p1292
tp1293
Rp1294
tp1295
sbsbag3
(g305
g5
(lp1296
F0.49761724205595637
aF0.6688417559015611
aF0.9190367425182105
aF0.6665032033352789
aF0.2808569885735811
aF0.034856913416189794
aF0.3553463448668649
aF0.6045300627052721
aF0.08953653517650473
aF0.4088322526311411
aF0.15873601033779194
aF0.07077248092850563
atp1297
Rp1298
(dp1299
g237
g3
(g270
g264
Ntp1300
Rp1301
(dp1302
g274
(g275
(g19
S'{<b\xbf\x8fc\xcf?'
p1303
tp1304
Rp1305
g275
(g19
S'\xec%\xa4l2\xf2\x9f\xbe'
p1306
tp1307
Rp1308
tp1309
sbsbag3
(g305
g5
(lp1310
F0.9032441640130197
aF0.40885855055010667
aF0.3845057725780805
aF0.35351540980866847
aF0.21806033709200545
aF0.6591572916003465
aF0.016033222596090746
aF0.415641267951961
aF0.05497348958509496
aF0.03512352600684021
aF0.8020682823306376
aF0.01287335178020832
atp1311
Rp1312
(dp1313
g237
g3
(g270
g264
Ntp1314
Rp1315
(dp1316
g274
(g275
(g19
S'\x82\x9el\xe4\xfa\x17\xd0?'
p1317
tp1318
Rp1319
g275
(g19
S'X\x02\x10\x16\x13\xc4\xb0\xbe'
p1320
tp1321
Rp1322
tp1323
sbsbag3
(g305
g5
(lp1324
F0.49761724205595637
aF0.6688417559015611
aF0.9190367425182105
aF0.6665032033352789
aF0.2808569885735811
aF0.7675330306119288
aF0.9208593850274949
aF0.6049090773262219
aF0.5881044909341485
aF0.8775689617417916
aF0.5131454199083587
aF0.016298987322858505
atp1325
Rp1326
(dp1327
g237
g3
(g270
g264
Ntp1328
Rp1329
(dp1330
g274
(g275
(g19
S'\xc0\x87\xc5\xda\x8c\xee\xcf?'
p1331
tp1332
Rp1333
g275
(g19
S'\x1c\x8d(\x92"\x9d~\xbe'
p1334
tp1335
Rp1336
tp1337
sbsbag3
(g305
g5
(lp1338
F0.8274548816265221
aF0.5114943874784472
aF0.9828087243885343
aF0.2805132161447925
aF0.6054678753080773
aF0.85528099061936
aF0.698361392676801
aF0.8543203695945643
aF0.7266628275765987
aF0.6479351038096106
aF0.16086167682635222
aF0.24951011465641737
atp1339
Rp1340
(dp1341
g237
g3
(g270
g264
Ntp1342
Rp1343
(dp1344
g274
(g275
(g19
S'*n%\x99C]\xc5?'
p1345
tp1346
Rp1347
g275
(g19
S'\xdc4{\x95li\xae\xbe'
p1348
tp1349
Rp1350
tp1351
sbsbag3
(g305
g5
(lp1352
F0.6987726934518269
aF0.3413125638163811
aF0.17261647435363447
aF0.9028117030241717
aF0.412483676923907
aF0.8798223209443514
aF0.909897359124504
aF0.553095526487086
aF0.8111770361629463
aF0.04874340337403382
aF0.16086167682635222
aF0.24951011465641737
atp1353
Rp1354
(dp1355
g237
g3
(g270
g264
Ntp1356
Rp1357
(dp1358
g274
(g275
(g19
S'F\xe3\xaa\xcf\x05\xa4\xd0?'
p1359
tp1360
Rp1361
g275
(g19
S'\xe6\xee%\x9d\x98\r\xb3\xbe'
p1362
tp1363
Rp1364
tp1365
sbsbag3
(g305
g5
(lp1366
F0.23109166775555234
aF0.25474169593233564
aF0.014993364787311392
aF0.9441435384752381
aF0.3811918188826622
aF0.13889628118143926
aF0.26302327266396175
aF0.30019760882503466
aF0.3438816043200654
aF0.2752183047909933
aF0.04305865554082611
aF0.05327977779137616
atp1367
Rp1368
(dp1369
g237
g3
(g270
g264
Ntp1370
Rp1371
(dp1372
g274
g282
sbsbag3
(g305
g5
(lp1373
F0.49761724205595637
aF0.6688417559015611
aF0.9190367425182105
aF0.6665032033352789
aF0.2808569885735811
aF0.7675330306119288
aF0.9208593850274949
aF0.6049090773262219
aF0.5881044909341485
aF0.2752183047909933
aF0.04305865554082611
aF0.05327977779137616
atp1374
Rp1375
(dp1376
g237
g3
(g270
g264
Ntp1377
Rp1378
(dp1379
g274
(g275
(g19
S'\x9b\xa5\xbf\x82r7\xcd?'
p1380
tp1381
Rp1382
g275
(g19
S'&\xbd\xb3\x05\x8dp\xaf\xbe'
p1383
tp1384
Rp1385
tp1386
sbsbag3
(g305
g5
(lp1387
F0.23109166775555234
aF0.7057219167023422
aF0.059052122628312276
aF0.25763406217607443
aF0.3811918188826622
aF0.13889628118143926
aF0.26302327266396175
aF0.30019760882503466
aF0.3438816043200654
aF0.8775689617417916
aF0.15873601033779194
aF0.07077248092850563
atp1388
Rp1389
(dp1390
g237
g3
(g270
g264
Ntp1391
Rp1392
(dp1393
g274
(g275
(g19
S'\xf3\xe6N\x14\x80\x10\xc9?'
p1394
tp1395
Rp1396
g275
(g19
S'0\xa7\xdf\x9bn\xcd\xb2\xbe'
p1397
tp1398
Rp1399
tp1400
sbsbag3
(g305
g5
(lp1401
F0.8274548816265221
aF0.7057219167023422
aF0.059052122628312276
aF0.25763406217607443
aF0.3782531079221306
aF0.7675330306119288
aF0.9208593850274949
aF0.6049090773262219
aF0.5881044909341485
aF0.8775689617417916
aF0.8020682823306376
aF0.01287335178020832
atp1402
Rp1403
(dp1404
g237
g3
(g270
g264
Ntp1405
Rp1406
(dp1407
g274
(g275
(g19
S'\nz\xcb\xf7\x13j\xce?'
p1408
tp1409
Rp1410
g275
(g19
S'\xc5\x1c\xad\xfe\xfcj\xb4\xbe'
p1411
tp1412
Rp1413
tp1414
sbsbag3
(g305
g5
(lp1415
F0.8417006380101849
aF0.8781053123138626
aF0.46345286179271505
aF0.2805132161447925
aF0.6054678753080773
aF0.85528099061936
aF0.698361392676801
aF0.553095526487086
aF0.8111770361629463
aF0.23239246546319858
aF0.8020682823306376
aF0.01287335178020832
atp1416
Rp1417
(dp1418
g237
g3
(g270
g264
Ntp1419
Rp1420
(dp1421
g274
(g275
(g19
S'\xe3\xb5\x13\x10\xec\xb3\xcd?'
p1422
tp1423
Rp1424
g275
(g19
S'b\x84i\x16\x8e\t\xb0\xbe'
p1425
tp1426
Rp1427
tp1428
sbsbag3
(g305
g5
(lp1429
F0.3636662155115107
aF0.8517789937164908
aF0.08279514694734547
aF0.21867949708753898
aF0.3782531079221306
aF0.034856913416189794
aF0.3553463448668649
aF0.6045300627052721
aF0.08953653517650473
aF0.4088322526311411
aF0.8020682823306376
aF0.01287335178020832
atp1430
Rp1431
(dp1432
g237
g3
(g270
g264
Ntp1433
Rp1434
(dp1435
g274
(g275
(g19
S':\x12oT\xaf\xc2\xcf?'
p1436
tp1437
Rp1438
g275
(g19
S'\x9d\x10\xbd\xfe\xad\n\xa1\xbe'
p1439
tp1440
Rp1441
tp1442
sbsbag3
(g305
g5
(lp1443
F0.8417006380101849
aF0.25474169593233564
aF0.014993364787311392
aF0.9441435384752381
aF0.15569388739255619
aF0.1891097784571818
aF0.2423092553043149
aF0.5420619366551909
aF0.7486655380895242
aF0.9139057536659729
aF0.43193106487106003
aF0.12245172956232186
atp1444
Rp1445
(dp1446
g237
g3
(g270
g264
Ntp1447
Rp1448
(dp1449
g274
(g275
(g19
S'%\x15\t\x00E:\xcb?'
p1450
tp1451
Rp1452
g275
(g19
S't\xc0\x0e\xce\xaf\xec\x97\xbe'
p1453
tp1454
Rp1455
tp1456
sbsbag3
(g305
g5
(lp1457
F0.7568027345388753
aF0.4712661302286839
aF0.8652275834058072
aF0.012499170382860636
aF0.09046467239623779
aF0.9624364694286329
aF0.09401478490570103
aF0.5441013620659705
aF0.3812636829285161
aF0.3738621314023246
aF0.9311922756947439
aF0.47988400802864184
atp1458
Rp1459
(dp1460
g237
g3
(g270
g264
Ntp1461
Rp1462
(dp1463
g274
(g275
(g19
S'2\x06\xfaET\xad\xc8?'
p1464
tp1465
Rp1466
g275
(g19
S'1.\x0e\x8f\xefn\x95\xbe'
p1467
tp1468
Rp1469
tp1470
sbsbag3
(g305
g5
(lp1471
F0.1211927618791735
aF0.35133114011231137
aF0.20865406660306307
aF0.7494892614910853
aF0.4855567332656109
aF0.3473354346563975
aF0.5368272950651946
aF0.6697670211407791
aF0.13032463352731205
aF0.0714012113952297
aF0.7937417549126989
aF0.4265046752446665
atp1472
Rp1473
(dp1474
g237
g3
(g270
g264
Ntp1475
Rp1476
(dp1477
g274
(g275
(g19
S'wn\xf8\xcdH\xcb\xc5?'
p1478
tp1479
Rp1480
g275
(g19
S'\x10o\x93\xb5\xf2\xfa\x9b\xbe'
p1481
tp1482
Rp1483
tp1484
sbsbag3
(g305
g5
(lp1485
F0.5331135744503184
aF0.8388850008450391
aF0.6156228087733326
aF0.011249795673108798
aF0.6590529285052699
aF0.9485941235389349
aF0.9746653853825374
aF0.8495866100915486
aF0.43697020407686815
aF0.48094922941703366
aF0.043352923522969156
aF0.11782353808505608
atp1486
Rp1487
(dp1488
g237
g3
(g270
g264
Ntp1489
Rp1490
(dp1491
g274
(g275
(g19
S'S}\xb9\x9b\x96\xeb\xcd?'
p1492
tp1493
Rp1494
g275
(g19
S'\x15Y\xe7\xd2q\x90\xa2\xbe'
p1495
tp1496
Rp1497
tp1498
sbsbag3
(g305
g5
(lp1499
F0.0030491596539697907
aF0.6734062546107908
aF0.8531426713060112
aF0.5098987989199303
aF0.9336803788893858
aF0.5003320018831272
aF0.9558705740859785
aF0.9076306355915219
aF0.14567480448936942
aF0.45988764300628016
aF0.054681656728423844
aF0.16260941403999352
atp1500
Rp1501
(dp1502
g237
g3
(g270
g264
Ntp1503
Rp1504
(dp1505
g274
(g275
(g19
S'6\xa54\xe6s\x19\xcd?'
p1506
tp1507
Rp1508
g275
(g19
S'2\x1c\x8e\x14\x7f\xd6\xa1\xbe'
p1509
tp1510
Rp1511
tp1512
sbsbag3
(g305
g5
(lp1513
F0.7256401058672227
aF0.6109702471784736
aF0.3873022601556785
aF0.5265602171506188
aF0.9327637986458189
aF0.2039268370427635
aF0.4898104653170924
aF0.878579493695864
aF0.8112292672867376
aF0.8057393774422053
aF0.5909657939537658
aF0.9390343123286918
atp1514
Rp1515
(dp1516
g237
g3
(g270
g264
Ntp1517
Rp1518
(dp1519
g274
(g275
(g19
S't\xb3\xe9 sD\xa4?'
p1520
tp1521
Rp1522
g275
(g19
S'\xf0\x86\x8aEj\tr\xbe'
p1523
tp1524
Rp1525
tp1526
sbsbag3
(g305
g5
(lp1527
F0.3636662155115107
aF0.8517789937164908
aF0.08279514694734547
aF0.21867949708753898
aF0.3782531079221306
aF0.034856913416189794
aF0.3553463448668649
aF0.6045300627052721
aF0.08953653517650473
aF0.4088322526311411
aF0.8020682823306376
aF0.016298987322858505
atp1528
Rp1529
(dp1530
g237
g3
(g270
g264
Ntp1531
Rp1532
(dp1533
g274
(g275
(g19
S'B\xb1\xcc\xca\x07\x99\xcf?'
p1534
tp1535
Rp1536
g275
(g19
S'&\xe47\xe3`\x87\xa4\xbe'
p1537
tp1538
Rp1539
tp1540
sbsbag3
(g305
g5
(lp1541
F0.9032441640130197
aF0.40885855055010667
aF0.3845057725780805
aF0.35351540980866847
aF0.21806033709200545
aF0.6591572916003465
aF0.016033222596090746
aF0.415641267951961
aF0.05497348958509496
aF0.03512352600684021
aF0.5131454199083587
aF0.01287335178020832
atp1542
Rp1543
(dp1544
g237
g3
(g270
g264
Ntp1545
Rp1546
(dp1547
g274
(g275
(g19
S'\xba\x8f\xac\xc8\xa94\xd0?'
p1548
tp1549
Rp1550
g275
(g19
S'$\x12\xf8\xec\xd1D\xad\xbe'
p1551
tp1552
Rp1553
tp1554
sbsbag3
(g305
g5
(lp1555
F0.49761724205595637
aF0.6688417559015611
aF0.9190367425182105
aF0.2805132161447925
aF0.6054678753080773
aF0.85528099061936
aF0.698361392676801
aF0.553095526487086
aF0.8111770361629463
aF0.04874340337403382
aF0.16086167682635222
aF0.24951011465641737
atp1556
Rp1557
(dp1558
g237
g3
(g270
g264
Ntp1559
Rp1560
(dp1561
g274
(g275
(g19
S'\xe6\x85$\xed\x1f\xd4\xce?'
p1562
tp1563
Rp1564
g275
(g19
S'W\xc9u\xd0:W\xa8\xbe'
p1565
tp1566
Rp1567
tp1568
sbsbag3
(g305
g5
(lp1569
F0.37237387156786816
aF0.10268414574360873
aF0.7472728353447303
aF0.3991396447456613
aF0.08356649428023621
aF0.6204758958860954
aF0.014415811554388203
aF0.9111974937132991
aF0.29158880199736115
aF0.40884594962341625
aF0.023492721598666444
aF0.09217563040736931
atp1570
Rp1571
(dp1572
g237
g3
(g270
g264
Ntp1573
Rp1574
(dp1575
g274
(g275
(g19
S'\xf8?x\xa1R~\xcf?'
p1576
tp1577
Rp1578
g275
(g19
S'\xb9\xc1\xd0\xab\x80\xc1\x94\xbe'
p1579
tp1580
Rp1581
tp1582
sbsbag3
(g305
g5
(lp1583
F0.7835933285766438
aF0.587882961665988
aF0.6383961684507017
aF0.9988984671900707
aF0.6310235829340896
aF0.6192294238869148
aF0.22522704224984158
aF0.881771208128191
aF0.5260717385511835
aF0.8958757480880907
aF0.9780757326530133
aF0.7225979978946079
atp1584
Rp1585
(dp1586
g237
g3
(g270
g264
Ntp1587
Rp1588
(dp1589
g274
(g275
(g19
S'6\x92\x89C\xad\xed\xb8?'
p1590
tp1591
Rp1592
g275
(g19
S'\x0e\xb1:\x15\xba\x9c\x85\xbe'
p1593
tp1594
Rp1595
tp1596
sbsbag3
(g305
g5
(lp1597
F0.8274548816265221
aF0.8781053123138626
aF0.46345286179271505
aF0.6665032033352789
aF0.2808569885735811
aF0.034856913416189794
aF0.3553463448668649
aF0.6045300627052721
aF0.08953653517650473
aF0.4088322526311411
aF0.15873601033779194
aF0.07077248092850563
atp1598
Rp1599
(dp1600
g237
g3
(g270
g264
Ntp1601
Rp1602
(dp1603
g274
(g275
(g19
S'\xee\xe9\x84<\xfe\x1a\xd1?'
p1604
tp1605
Rp1606
g275
(g19
S'e-g@\x81H\xa1\xbe'
p1607
tp1608
Rp1609
tp1610
sbsbag3
(g305
g5
(lp1611
F0.9032441640130197
aF0.40885855055010667
aF0.3845057725780805
aF0.35351540980866847
aF0.21806033709200545
aF0.6591572916003465
aF0.016033222596090746
aF0.415641267951961
aF0.05497348958509496
aF0.6372288246926033
aF0.8392547524186106
aF0.003816969841038076
atp1612
Rp1613
(dp1614
g237
g3
(g270
g264
Ntp1615
Rp1616
(dp1617
g274
(g275
(g19
S'8\x18\x8e\xdd\x80F\xcf?'
p1618
tp1619
Rp1620
g275
(g19
S'A)%b \xf9\xb1\xbe'
p1621
tp1622
Rp1623
tp1624
sbsbag3
(g305
g5
(lp1625
F0.49761724205595637
aF0.6688417559015611
aF0.9190367425182105
aF0.2805132161447925
aF0.6054678753080773
aF0.85528099061936
aF0.698361392676801
aF0.553095526487086
aF0.8111770361629463
aF0.23239246546319858
aF0.5331944959002831
aF0.399152564765777
atp1626
Rp1627
(dp1628
g237
g3
(g270
g264
Ntp1629
Rp1630
(dp1631
g274
(g275
(g19
S'\xe0\xb6u\xc8\xc8$\xd0?'
p1632
tp1633
Rp1634
g275
(g19
S'L\xb3\t\xa5(\x06\x9c\xbe'
p1635
tp1636
Rp1637
tp1638
sbsbag3
(g305
g5
(lp1639
F0.3203961759365104
aF0.8811518556305185
aF0.5262638342143806
aF0.20311258496291895
aF0.43950985752887106
aF0.5400074353527546
aF0.593615442058986
aF0.5092273112437536
aF0.8981215787992827
aF0.03512352600684021
aF0.8020682823306376
aF0.01287335178020832
atp1640
Rp1641
(dp1642
g237
g3
(g270
g264
Ntp1643
Rp1644
(dp1645
g274
(g275
(g19
S"C\x95\xf1\xe5\xce'\xcd?"
p1646
tp1647
Rp1648
g275
(g19
S'\x0eZ\x91\xbe\x12\xe1\xab\xbe'
p1649
tp1650
Rp1651
tp1652
sbsbag3
(g305
g5
(lp1653
F0.8274548816265221
aF0.7057219167023422
aF0.628429822907628
aF0.011112782176104008
aF0.3782531079221306
aF0.034856913416189794
aF0.3553463448668649
aF0.6045300627052721
aF0.08953653517650473
aF0.4088322526311411
aF0.15873601033779194
aF0.07077248092850563
atp1654
Rp1655
(dp1656
g237
g3
(g270
g264
Ntp1657
Rp1658
(dp1659
g274
(g275
(g19
S'\xab\xd9\xf07\xd5\x9b\xcf?'
p1660
tp1661
Rp1662
g275
(g19
S'\xa1\x91hX?\xf0\xa6\xbe'
p1663
tp1664
Rp1665
tp1666
sbsbag3
(g305
g5
(lp1667
F0.23109166775555234
aF0.8781053123138626
aF0.46345286179271505
aF0.6665032033352789
aF0.11409687513949196
aF0.7675330306119288
aF0.9208593850274949
aF0.6049090773262219
aF0.06332552096782162
aF0.8775689617417916
aF0.8020682823306376
aF0.01287335178020832
atp1668
Rp1669
(dp1670
g237
g3
(g270
g264
Ntp1671
Rp1672
(dp1673
g274
(g275
(g19
S'\xe6\xac,\x8b\x04\xe5\xcf?'
p1674
tp1675
Rp1676
g275
(g19
S'\x04:&\xbcl\xd2k\xbe'
p1677
tp1678
Rp1679
tp1680
sbsbag3
(g305
g5
(lp1681
F0.3292724712906192
aF0.9318671631782898
aF0.6219221215094118
aF0.2665680160178767
aF0.6555075030721876
aF0.5705351776763825
aF0.45127794080218864
aF0.7134253786226807
aF0.2729617657303224
aF0.42583093968125685
aF0.2528858593617397
aF0.4615894078468622
atp1682
Rp1683
(dp1684
g237
g3
(g270
g264
Ntp1685
Rp1686
(dp1687
g274
(g275
(g19
S'b$c\x92\xad\x0e\xcb?'
p1688
tp1689
Rp1690
g275
(g19
S'\x01\x10\xe0\xad`"\xb1\xbe'
p1691
tp1692
Rp1693
tp1694
sbsbag3
(g305
g5
(lp1695
F0.7715760945541518
aF0.6688417559015611
aF0.9190367425182105
aF0.6665032033352789
aF0.2808569885735811
aF0.7675330306119288
aF0.9208593850274949
aF0.6049090773262219
aF0.5881044909341485
aF0.8775689617417916
aF0.5131454199083587
aF0.016298987322858505
atp1696
Rp1697
(dp1698
g237
g3
(g270
g264
Ntp1699
Rp1700
(dp1701
g274
(g275
(g19
S'Sc#l^\xf6\xcf?'
p1702
tp1703
Rp1704
g275
(g19
S'W9\xc7A\x1c5a\xbe'
p1705
tp1706
Rp1707
tp1708
sbsbag3
(g305
g5
(lp1709
F0.5384913908532478
aF0.18627789167754027
aF0.12346431017659532
aF0.3190196421441127
aF0.899796278205074
aF0.510380191400446
aF0.9823111893140895
aF0.9283456724116373
aF0.0640024408629617
aF0.39365768188295724
aF0.27176542999174835
aF0.772521840312932
atp1710
Rp1711
(dp1712
g237
g3
(g270
g264
Ntp1713
Rp1714
(dp1715
g274
(g275
(g19
S':\xc2\xd8`0]\xb1?'
p1716
tp1717
Rp1718
g275
(g19
S'\xc7\xff\x07\x99\xa2\x1b\x7f\xbe'
p1719
tp1720
Rp1721
tp1722
sbsbag3
(g305
g5
(lp1723
F0.49761724205595637
aF0.9771804233442543
aF0.4969289870981789
aF0.568175643533191
aF0.09136558288932162
aF0.9335242013209507
aF0.4719134160306926
aF0.5573729843744438
aF0.9100279432585389
aF0.2030948250270751
aF0.5372819976064704
aF0.3520150924003087
atp1724
Rp1725
(dp1726
g237
g3
(g270
g264
Ntp1727
Rp1728
(dp1729
g274
(g275
(g19
S'Per\x9b\xb5c\xd0?'
p1730
tp1731
Rp1732
g275
(g19
S'\x7f\xbf\x1bR\x8aO\x9f\xbe'
p1733
tp1734
Rp1735
tp1736
sbsbag3
(g305
g5
(lp1737
F0.284114015338498
aF0.5286768294207271
aF0.7904206198417967
aF0.4212321797488233
aF0.048842098785739196
aF0.14333859784188985
aF0.2670154724258309
aF0.5756824955998457
aF0.38316468406981574
aF0.6269329652082983
aF0.1595558458752233
aF0.72966358618501
atp1738
Rp1739
(dp1740
g237
g3
(g270
g264
Ntp1741
Rp1742
(dp1743
g274
(g275
(g19
S'66\xd9\xddp\xd3\xb5?'
p1744
tp1745
Rp1746
g275
(g19
S'\xac\x91:a\xb7\xd6\x83\xbe'
p1747
tp1748
Rp1749
tp1750
sbsbag3
(g305
g5
(lp1751
F0.7137591423078395
aF0.1668024279035858
aF0.28455163264086525
aF0.7732547489061596
aF0.2792521453403558
aF0.0924372710559912
aF0.8043264081410889
aF0.26573836991828226
aF0.6134335814508957
aF0.4025372003187796
aF0.020122277242648257
aF0.45064442685525175
atp1752
Rp1753
(dp1754
g237
g3
(g270
g264
Ntp1755
Rp1756
(dp1757
g274
(g275
(g19
S'g\xeaRMz&\xc2?'
p1758
tp1759
Rp1760
g275
(g19
S'\x90\xa5\xf5JK_\x9f\xbe'
p1761
tp1762
Rp1763
tp1764
sbsbag3
(g305
g5
(lp1765
F0.8484667463257912
aF0.12721620856532545
aF0.7437472102731348
aF0.0741188459434835
aF0.4743247128427387
aF0.15617897009120763
aF0.12812489476317668
aF0.5461159331415966
aF0.018208243904452304
aF0.13137082276487944
aF0.47726951969607934
aF0.8840096632355134
atp1766
Rp1767
(dp1768
g237
g3
(g270
g264
Ntp1769
Rp1770
(dp1771
g274
(g275
(g19
S'\xc2\xa6\xc6\xd2\x1e\x81\xac?'
p1772
tp1773
Rp1774
g275
(g19
S'\xb2\xf2\xb2m\x03\xfc}\xbe'
p1775
tp1776
Rp1777
tp1778
sbsbag3
(g305
g5
(lp1779
F0.19605487848779202
aF0.09633115927950386
aF0.2533795541947177
aF0.590931947483333
aF0.8091030299916748
aF0.9583032536856168
aF0.42972531878470366
aF0.17212872380003064
aF0.8298560770305826
aF0.8628937992287715
aF0.31331216811900675
aF0.33284484021239635
atp1780
Rp1781
(dp1782
g237
g3
(g270
g264
Ntp1783
Rp1784
(dp1785
g274
(g275
(g19
S'\x8bF\xd2\xf3$\x00\xcb?'
p1786
tp1787
Rp1788
g275
(g19
S'\x02\x9dl\x7f]\xfb\x9c\xbe'
p1789
tp1790
Rp1791
tp1792
sbsbag3
(g305
g5
(lp1793
F0.4212087904657076
aF0.3358946663456226
aF0.12054830784180215
aF0.3680797928854629
aF0.3643169923454116
aF0.47847935814434717
aF0.6079633238613952
aF0.5419227890043192
aF0.11113465548257484
aF0.13424119699565762
aF0.7027502188698342
aF0.5320192756238085
atp1794
Rp1795
(dp1796
g237
g3
(g270
g264
Ntp1797
Rp1798
(dp1799
g274
(g275
(g19
S'\xcd\xd3\x00W\x0e\xff\xc0?'
p1800
tp1801
Rp1802
g275
(g19
S'\xfb\xae$Z\x86Y\x92\xbe'
p1803
tp1804
Rp1805
tp1806
sbsbag3
(g305
g5
(lp1807
F0.5204027007837764
aF0.14891817872779
aF0.742415204307794
aF0.49866446018478616
aF0.904532639049865
aF0.8812452012674302
aF0.02150251729947139
aF0.2629217048271474
aF0.815958744343393
aF0.9596307620547103
aF0.2618299218799618
aF0.3406084844121976
atp1808
Rp1809
(dp1810
g237
g3
(g270
g264
Ntp1811
Rp1812
(dp1813
g274
(g275
(g19
S'kN?Gg\xa9\xcb?'
p1814
tp1815
Rp1816
g275
(g19
S'v\x0e\x9b\xf4\x0c\xa6\x98\xbe'
p1817
tp1818
Rp1819
tp1820
sbsbag3
(g305
g5
(lp1821
F0.23109166775555234
aF0.25474169593233564
aF0.014993364787311392
aF0.9441435384752381
aF0.3811918188826622
aF0.13889628118143926
aF0.26302327266396175
aF0.30019760882503466
aF0.3438816043200654
aF0.2752183047909933
aF0.04305865554082611
aF0.05327977779137616
atp1822
Rp1823
(dp1824
g237
g3
(g270
g264
Ntp1825
Rp1826
(dp1827
g274
(g275
(g19
S'\xcc\xd8\xa5\xc40r\xd2?'
p1828
tp1829
Rp1830
g275
(g19
S'\xb9\x16\xb1\xeb\xe7t\xa5\xbe'
p1831
tp1832
Rp1833
tp1834
sbsbag3
(g305
g5
(lp1835
F0.23109166775555234
aF0.7057219167023422
aF0.059052122628312276
aF0.25763406217607443
aF0.3811918188826622
aF0.13889628118143926
aF0.26302327266396175
aF0.30019760882503466
aF0.3438816043200654
aF0.2752183047909933
aF0.04305865554082611
aF0.05327977779137616
atp1836
Rp1837
(dp1838
g237
g3
(g270
g264
Ntp1839
Rp1840
(dp1841
g274
(g275
(g19
S'\xb6\x99\x89k\x85\xbd\xd1?'
p1842
tp1843
Rp1844
g275
(g19
S'bF\x9d\x1av\x11\xbe\xbe'
p1845
tp1846
Rp1847
tp1848
sbsbag3
(g305
g5
(lp1849
F0.8274548816265221
aF0.7057219167023422
aF0.059052122628312276
aF0.25763406217607443
aF0.3811918188826622
aF0.13889628118143926
aF0.9208593850274949
aF0.6049090773262219
aF0.5881044909341485
aF0.2752183047909933
aF0.04305865554082611
aF0.05327977779137616
atp1850
Rp1851
(dp1852
g237
g3
(g270
g264
Ntp1853
Rp1854
(dp1855
g274
(g275
(g19
S'}\xfdm!&\x96\xd1?'
p1856
tp1857
Rp1858
g275
(g19
S')$\x81\n\xc9g\x97\xbe'
p1859
tp1860
Rp1861
tp1862
sbsbag3
(g305
g5
(lp1863
F0.49761724205595637
aF0.6688417559015611
aF0.9190367425182105
aF0.6665032033352789
aF0.2808569885735811
aF0.7675330306119288
aF0.26302327266396175
aF0.30019760882503466
aF0.3438816043200654
aF0.2752183047909933
aF0.04305865554082611
aF0.05327977779137616
atp1864
Rp1865
(dp1866
g237
g3
(g270
g264
Ntp1867
Rp1868
(dp1869
g274
(g275
(g19
S'&\xa2_D<7\xd0?'
p1870
tp1871
Rp1872
g275
(g19
S'\x91\xb9\x0e;\x05G\xa2\xbe'
p1873
tp1874
Rp1875
tp1876
sbsbag3
(g305
g5
(lp1877
F0.23109166775555234
aF0.8781053123138626
aF0.46345286179271505
aF0.2805132161447925
aF0.6054678753080773
aF0.85528099061936
aF0.698361392676801
aF0.553095526487086
aF0.8111770361629463
aF0.04874340337403382
aF0.8020682823306376
aF0.01287335178020832
atp1878
Rp1879
(dp1880
g237
g3
(g270
g264
Ntp1881
Rp1882
(dp1883
g274
(g275
(g19
S'\xde\x05\xd9E\xb4s\xcc?'
p1884
tp1885
Rp1886
g275
(g19
S'\xe1\xb7~\xed\xef\xdb\xab\xbe'
p1887
tp1888
Rp1889
tp1890
sbsbag3
(g305
g5
(lp1891
F0.9032441640130197
aF0.40885855055010667
aF0.3845057725780805
aF0.35351540980866847
aF0.21806033709200545
aF0.6591572916003465
aF0.016033222596090746
aF0.415641267951961
aF0.05497348958509496
aF0.03512352600684021
aF0.16086167682635222
aF0.24951011465641737
atp1892
Rp1893
(dp1894
g237
g3
(g270
g264
Ntp1895
Rp1896
(dp1897
g274
(g275
(g19
S'\xa6\xe6\xe1\xbb\xd1X\xd2?'
p1898
tp1899
Rp1900
g275
(g19
S'J\xfb\x1eB}\xee\xb7\xbe'
p1901
tp1902
Rp1903
tp1904
sbsbag3
(g305
g5
(lp1905
F0.8417006380101849
aF0.8781053123138626
aF0.46345286179271505
aF0.2805132161447925
aF0.6054678753080773
aF0.8798223209443514
aF0.909897359124504
aF0.8543203695945643
aF0.7266628275765987
aF0.04874340337403382
aF0.16086167682635222
aF0.24951011465641737
atp1906
Rp1907
(dp1908
g237
g3
(g270
g264
Ntp1909
Rp1910
(dp1911
g274
(g275
(g19
S'sS\x02\x0bRs\xcd?'
p1912
tp1913
Rp1914
g275
(g19
S'\x05\xb8\xc7\x9e\xdcU\x99\xbe'
p1915
tp1916
Rp1917
tp1918
sbsbag3
(g305
g5
(lp1919
F0.42300956788051114
aF0.8429007467854076
aF0.007203684596680748
aF0.6674808088522635
aF0.8165322599909322
aF0.6471254277411094
aF0.29483031278029426
aF0.5261742017660365
aF0.16715515767585165
aF0.7747297165499024
aF0.2196356226577174
aF0.317423510329384
atp1920
Rp1921
(dp1922
g237
g3
(g270
g264
Ntp1923
Rp1924
(dp1925
g274
(g275
(g19
S')\xf6\xcf\x84t1\xc9?'
p1926
tp1927
Rp1928
g275
(g19
S'\xf6\xa3 \xb6\xc6]\xa8\xbe'
p1929
tp1930
Rp1931
tp1932
sbsbag3
(g305
g5
(lp1933
F0.8274548816265221
aF0.7057219167023422
aF0.059052122628312276
aF0.25763406217607443
aF0.3811918188826622
aF0.13889628118143926
aF0.26302327266396175
aF0.30019760882503466
aF0.3438816043200654
aF0.6425177417429272
aF0.09979284020650603
aF0.3454186085242189
atp1934
Rp1935
(dp1936
g237
g3
(g270
g264
Ntp1937
Rp1938
(dp1939
g274
(g275
(g19
S'\x82\xe8\xefO\x8b\xba\xc3?'
p1940
tp1941
Rp1942
g275
(g19
S'\xde)\xe6\xdc\xf4\xbc\x99\xbe'
p1943
tp1944
Rp1945
tp1946
sbsbag3
(g305
g5
(lp1947
F0.6987726934518269
aF0.3413125638163811
aF0.17261647435363447
aF0.9028117030241717
aF0.31045970519750965
aF0.8168197240369595
aF0.06118713151838606
aF0.2090139057615038
aF0.2995850523483504
aF0.2752183047909933
aF0.04305865554082611
aF0.05327977779137616
atp1948
Rp1949
(dp1950
g237
g3
(g270
g264
Ntp1951
Rp1952
(dp1953
g274
(g275
(g19
S'\x08s\x9a\x1e\x8cS\xd2?'
p1954
tp1955
Rp1956
g275
(g19
S'\x9e\xd3\xb2e\xd2]\x95\xbe'
p1957
tp1958
Rp1959
tp1960
sbsbag3
(g305
g5
(lp1961
F0.49761724205595637
aF0.6688417559015611
aF0.9190367425182105
aF0.9028117030241717
aF0.412483676923907
aF0.85528099061936
aF0.698361392676801
aF0.553095526487086
aF0.8111770361629463
aF0.23239246546319858
aF0.8020682823306376
aF0.01287335178020832
atp1962
Rp1963
(dp1964
g237
g3
(g270
g264
Ntp1965
Rp1966
(dp1967
g274
(g275
(g19
S'\xf3\xa8\xed_va\xcc?'
p1968
tp1969
Rp1970
g275
(g19
S'Q\t\xe2\xb6\xfc(\xb8\xbe'
p1971
tp1972
Rp1973
tp1974
sbsbag3
(g305
g5
(lp1975
F0.5481563260280812
aF0.8372678228794557
aF0.4101265693434851
aF0.6687722951377343
aF0.007646585821726948
aF0.2956423951992717
aF0.574696686724779
aF0.38381222409874416
aF0.7074626013055084
aF0.04692019212314946
aF0.7603450398778715
aF0.3878788860019552
atp1976
Rp1977
(dp1978
g237
g3
(g270
g264
Ntp1979
Rp1980
(dp1981
g274
(g275
(g19
S'2\xaf+\x13\xd7*\xcd?'
p1982
tp1983
Rp1984
g275
(g19
S'\xebt\xb1\x8f\xa7\x91\xa3\xbe'
p1985
tp1986
Rp1987
tp1988
sbsbag3
(g305
g5
(lp1989
F0.4233500284761932
aF0.9413267080393926
aF0.5131705154819005
aF0.4218645630513559
aF0.1618737170268959
aF0.3549649902912838
aF0.5613911909674485
aF0.36287955228117197
aF0.9889730511612245
aF0.33081020211808143
aF0.2504061759589232
aF0.9258320741579061
atp1990
Rp1991
(dp1992
g237
g3
(g270
g264
Ntp1993
Rp1994
(dp1995
g274
(g275
(g19
S'qo\xc5W7\x8a\xa8?'
p1996
tp1997
Rp1998
g275
(g19
S'\x01\xf0\x159\x0e~\x86\xbe'
p1999
tp2000
Rp2001
tp2002
sbsbag3
(g305
g5
(lp2003
F0.38221891106185224
aF0.3219272886972959
aF0.4073196052777166
aF0.13706280453413244
aF0.9879913701146623
aF0.8415288256965228
aF0.9187351495878345
aF0.8956696421804956
aF0.14204794900121254
aF0.7034467146536527
aF0.4492734316780105
aF0.6432028475502232
atp2004
Rp2005
(dp2006
g237
g3
(g270
g264
Ntp2007
Rp2008
(dp2009
g274
(g275
(g19
S'\xfbEQ Ws\xbe?'
p2010
tp2011
Rp2012
g275
(g19
S')?\nv\xe0z\x91\xbe'
p2013
tp2014
Rp2015
tp2016
sbsbag3
(g305
g5
(lp2017
F0.2733950150984502
aF0.7525492818649758
aF0.4444736831178182
aF0.10734064171707636
aF0.41948841752685107
aF0.5008290987378667
aF0.39895945285284795
aF0.2935659288983107
aF0.8836269019906103
aF0.8014488984698458
aF0.17472150222035043
aF0.6696687116561507
atp2018
Rp2019
(dp2020
g237
g3
(g270
g264
Ntp2021
Rp2022
(dp2023
g274
(g275
(g19
S'\xf6\xac@\x96"^\xba?'
p2024
tp2025
Rp2026
g275
(g19
S'\x1ezb\xd6c6\x89\xbe'
p2027
tp2028
Rp2029
tp2030
sbsbag3
(g305
g5
(lp2031
F0.9481891596753674
aF0.54213641119337
aF0.09001510485975894
aF0.011282310609955992
aF0.3403802824399875
aF0.017022939429334527
aF0.3249991429678587
aF0.8412347359401403
aF0.07525329882545573
aF0.35384889615277615
aF0.4268352245398802
aF0.6416330938785614
atp2032
Rp2033
(dp2034
g237
g3
(g270
g264
Ntp2035
Rp2036
(dp2037
g274
(g275
(g19
S'\xea\xb5\xff\x00\xf8\xf4\xae?'
p2038
tp2039
Rp2040
g275
(g19
S'\xa7\xc40:o\xabx\xbe'
p2041
tp2042
Rp2043
tp2044
sbsbag3
(g305
g5
(lp2045
F0.753631773818632
aF0.40464997721975826
aF0.3424042212570496
aF0.5883210284227834
aF0.8295634735237631
aF0.8490362742976982
aF0.8117051157778651
aF0.7514484334104343
aF0.6044087387488257
aF0.4376880770236161
aF0.5045583565275734
aF0.027005150707799297
atp2046
Rp2047
(dp2048
g237
g3
(g270
g264
Ntp2049
Rp2050
(dp2051
g274
(g275
(g19
S'}\xc7\xb6rs\xa0\xcd?'
p2052
tp2053
Rp2054
g275
(g19
S'\xf4\x10"\xa6R{\xa9\xbe'
p2055
tp2056
Rp2057
tp2058
sbsbag3
(g305
g5
(lp2059
F0.8274548816265221
aF0.7057219167023422
aF0.059052122628312276
aF0.25763406217607443
aF0.3782531079221306
aF0.034856913416189794
aF0.3553463448668649
aF0.6045300627052721
aF0.08953653517650473
aF0.4088322526311411
aF0.5331944959002831
aF0.399152564765777
atp2060
Rp2061
(dp2062
g237
g3
(g270
g264
Ntp2063
Rp2064
(dp2065
g274
(g275
(g19
S'\x9e<q=\x1a\xa6\xbf?'
p2066
tp2067
Rp2068
g275
(g19
S'\x8f\x11K\x15aK\x8e\xbe'
p2069
tp2070
Rp2071
tp2072
sbsbag3
(g305
g5
(lp2073
F0.6987726934518269
aF0.3413125638163811
aF0.17261647435363447
aF0.25763406217607443
aF0.3811918188826622
aF0.13889628118143926
aF0.26302327266396175
aF0.30019760882503466
aF0.3438816043200654
aF0.2752183047909933
aF0.04305865554082611
aF0.05327977779137616
atp2074
Rp2075
(dp2076
g237
g3
(g270
g264
Ntp2077
Rp2078
(dp2079
g274
(g275
(g19
S'Q\xb5e\x04\x98\x07\xd2?'
p2080
tp2081
Rp2082
g275
(g19
S'S\x0b\xac\xb5\x1e,\xb8\xbe'
p2083
tp2084
Rp2085
tp2086
sbsbag3
(g305
g5
(lp2087
F0.23109166775555234
aF0.25474169593233564
aF0.014993364787311392
aF0.9441435384752381
aF0.3811918188826622
aF0.13889628118143926
aF0.3553463448668649
aF0.6045300627052721
aF0.08953653517650473
aF0.4088322526311411
aF0.8020682823306376
aF0.01287335178020832
atp2088
Rp2089
(dp2090
g237
g3
(g270
g264
Ntp2091
Rp2092
(dp2093
g274
(g275
(g19
S'6@\x0f\xb7\xfa^\xd0?'
p2094
tp2095
Rp2096
g275
(g19
S'\x8cm4|>\x12\xb9\xbe'
p2097
tp2098
Rp2099
tp2100
sbsbag3
(g305
g5
(lp2101
F0.49761724205595637
aF0.6688417559015611
aF0.9190367425182105
aF0.2805132161447925
aF0.6054678753080773
aF0.85528099061936
aF0.698361392676801
aF0.553095526487086
aF0.8111770361629463
aF0.23239246546319858
aF0.15873601033779194
aF0.07077248092850563
atp2102
Rp2103
(dp2104
g237
g3
(g270
g264
Ntp2105
Rp2106
(dp2107
g274
(g275
(g19
S'\x9e\xd1A\xbd\xa1\x98\xcd?'
p2108
tp2109
Rp2110
g275
(g19
S'V\xd2}\xf1I[\xad\xbe'
p2111
tp2112
Rp2113
tp2114
sbsbag3
(g305
g5
(lp2115
F0.6995268078880637
aF0.8558780486178266
aF0.9247202274632547
aF0.6444958534088092
aF0.30742315808361087
aF0.2817103307227896
aF0.21859013585756693
aF0.1820500534747671
aF0.29489653703974783
aF0.6569105061855604
aF0.04672057205353353
aF0.48447908119593697
atp2116
Rp2117
(dp2118
g237
g3
(g270
g264
Ntp2119
Rp2120
(dp2121
g274
(g275
(g19
S'!"\x9e\xf4\xa6\xa7\xc5?'
p2122
tp2123
Rp2124
g275
(g19
S'r\xd7\xa4\x0e\x9e@\x9a\xbe'
p2125
tp2126
Rp2127
tp2128
sbsbag3
(g305
g5
(lp2129
F0.23109166775555234
aF0.7057219167023422
aF0.059052122628312276
aF0.9028117030241717
aF0.31045970519750965
aF0.8168197240369595
aF0.06118713151838606
aF0.2090139057615038
aF0.2995850523483504
aF0.2752183047909933
aF0.04305865554082611
aF0.05327977779137616
atp2130
Rp2131
(dp2132
g237
g3
(g270
g264
Ntp2133
Rp2134
(dp2135
g274
g302
sbsbag3
(g305
g5
(lp2136
F0.8417006380101849
aF0.25474169593233564
aF0.014993364787311392
aF0.9441435384752381
aF0.3782531079221306
aF0.034856913416189794
aF0.26302327266396175
aF0.30019760882503466
aF0.3438816043200654
aF0.2752183047909933
aF0.04305865554082611
aF0.05327977779137616
atp2137
Rp2138
(dp2139
g237
g3
(g270
g264
Ntp2140
Rp2141
(dp2142
g274
(g275
(g19
S'.V\x92\x9c \xd2\xd0?'
p2143
tp2144
Rp2145
g275
(g19
S'\x99 .\xb0\xb8\x0c\xa7\xbe'
p2146
tp2147
Rp2148
tp2149
sbsbag3
(g305
g5
(lp2150
F0.8274548816265221
aF0.8781053123138626
aF0.46345286179271505
aF0.6665032033352789
aF0.2808569885735811
aF0.7675330306119288
aF0.9208593850274949
aF0.6049090773262219
aF0.5881044909341485
aF0.2752183047909933
aF0.04305865554082611
aF0.05327977779137616
atp2151
Rp2152
(dp2153
g237
g3
(g270
g264
Ntp2154
Rp2155
(dp2156
g274
(g275
(g19
S'\xbbj\xe1|\x12\x88\xce?'
p2157
tp2158
Rp2159
g275
(g19
S'\x01\x97\x86/\x12\x0c\xa8\xbe'
p2160
tp2161
Rp2162
tp2163
sbsbag3
(g305
g5
(lp2164
F0.8417006380101849
aF0.25474169593233564
aF0.014993364787311392
aF0.9441435384752381
aF0.3782531079221306
aF0.034856913416189794
aF0.3553463448668649
aF0.6045300627052721
aF0.08953653517650473
aF0.23239246546319858
aF0.5331944959002831
aF0.399152564765777
atp2165
Rp2166
(dp2167
g237
g3
(g270
g264
Ntp2168
Rp2169
(dp2170
g274
(g275
(g19
S'\xfa@G\x08+\xcd\xc0?'
p2171
tp2172
Rp2173
g275
(g19
S'\x87d\xa5\x13\xf7\xad\x9c\xbe'
p2174
tp2175
Rp2176
tp2177
sbsbag3
(g305
g5
(lp2178
F0.49761724205595637
aF0.6688417559015611
aF0.9190367425182105
aF0.6665032033352789
aF0.2808569885735811
aF0.034856913416189794
aF0.3553463448668649
aF0.6045300627052721
aF0.08953653517650473
aF0.4088322526311411
aF0.15873601033779194
aF0.07077248092850563
atp2179
Rp2180
(dp2181
g237
g3
(g270
g264
Ntp2182
Rp2183
(dp2184
g274
(g275
(g19
S'{<b\xbf\x8fc\xcf?'
p2185
tp2186
Rp2187
g275
(g19
S'\xec%\xa4l2\xf2\x9f\xbe'
p2188
tp2189
Rp2190
tp2191
sbsbag3
(g305
g5
(lp2192
F0.05378991400541755
aF0.1852242014659813
aF0.869132286956754
aF0.563191654791294
aF0.10706129120807129
aF0.0605921690513922
aF0.3309749518329689
aF0.5800801105228426
aF0.02811668723668881
aF0.17613622696842468
aF0.297112325020242
aF0.3367597017778807
atp2193
Rp2194
(dp2195
g237
g3
(g270
g264
Ntp2196
Rp2197
(dp2198
g274
(g275
(g19
S'g\xc4\xe5\xfd\xdbo\xd1?'
p2199
tp2200
Rp2201
g275
(g19
S'2\xe6\xfd\x05C\x03\xb4\xbe'
p2202
tp2203
Rp2204
tp2205
sbsbag3
(g305
g5
(lp2206
F0.5507810293088397
aF0.5296151057971984
aF0.4309840495653813
aF0.720957584056876
aF0.28142314903228094
aF0.018606315729765677
aF0.4546508911617877
aF0.4848549956587407
aF0.8374388488304272
aF0.07079441373889239
aF0.2334700863017627
aF0.28615395696237156
atp2207
Rp2208
(dp2209
g237
g3
(g270
g264
Ntp2210
Rp2211
(dp2212
g274
(g275
(g19
S'\x97\xbf\xae\x8am\xd3\xd0?'
p2213
tp2214
Rp2215
g275
(g19
S'JSC\x04\xb4_\xa1\xbe'
p2216
tp2217
Rp2218
tp2219
sbsbag3
(g305
g5
(lp2220
F0.6987726934518269
aF0.3413125638163811
aF0.17261647435363447
aF0.9028117030241717
aF0.412483676923907
aF0.85528099061936
aF0.698361392676801
aF0.553095526487086
aF0.8111770361629463
aF0.4088322526311411
aF0.8020682823306376
aF0.01287335178020832
atp2221
Rp2222
(dp2223
g237
g3
(g270
g264
Ntp2224
Rp2225
(dp2226
g274
(g275
(g19
S'*Y\xd0\x9b\x9d\x98\xcd?'
p2227
tp2228
Rp2229
g275
(g19
S'\xad\xcc\xf6\x86V9\xb1\xbe'
p2230
tp2231
Rp2232
tp2233
sbsbag3
(g305
g5
(lp2234
F0.9999920776912321
aF0.4508501382122907
aF0.6003679599304936
aF0.9006378561764993
aF0.6439147581384915
aF0.5575142405261687
aF0.28650814375156586
aF0.8919059561975474
aF0.9230002679645818
aF0.3574901514071819
aF0.7713169253206279
aF0.7137199379386318
atp2235
Rp2236
(dp2237
g237
g3
(g270
g264
Ntp2238
Rp2239
(dp2240
g274
(g275
(g19
S'w%<\x960\xab\xb8?'
p2241
tp2242
Rp2243
g275
(g19
S'q\xd4\x8d\xe0R\x81\x92\xbe'
p2244
tp2245
Rp2246
tp2247
sbsbag3
(g305
g5
(lp2248
F0.058227968496019855
aF0.3511156415106933
aF0.004803702110408703
aF0.7159830234121985
aF0.31668516836157246
aF0.8203273509928096
aF0.3443221145254398
aF0.7944736090791396
aF0.828336659526437
aF0.3077598149089976
aF0.2815088536150884
aF0.42821362567862653
atp2249
Rp2250
(dp2251
g237
g3
(g270
g264
Ntp2252
Rp2253
(dp2254
g274
(g275
(g19
S'I\xadJ)\x19\xe7\xc6?'
p2255
tp2256
Rp2257
g275
(g19
S'\x10\xbb\xed\xace/\xb2\xbe'
p2258
tp2259
Rp2260
tp2261
sbsbag3
(g305
g5
(lp2262
F0.12634548383780375
aF0.48447517884153546
aF0.9607028524925395
aF0.7074621287755926
aF0.2460578671279795
aF0.5210804642666672
aF0.10834459339448954
aF0.44706978605601
aF0.4075951360440194
aF0.368286062622157
aF0.13112657515518167
aF0.6923242403089115
atp2263
Rp2264
(dp2265
g237
g3
(g270
g264
Ntp2266
Rp2267
(dp2268
g274
(g275
(g19
S'\xdb\x90\x9a\xb2\xd4\xe5\xbe?'
p2269
tp2270
Rp2271
g275
(g19
S'\xffi\xd9\xadq\x18\xa7\xbe'
p2272
tp2273
Rp2274
tp2275
sbsbag3
(g305
g5
(lp2276
F0.6131838637123026
aF0.3394293982647171
aF0.007678649469756493
aF0.8090935823465016
aF0.1513114017935373
aF0.07472756020510074
aF0.14613475146521637
aF0.7011845361233021
aF0.9430770554671329
aF0.5221938108252432
aF0.10551172106928752
aF0.4422404043448366
atp2277
Rp2278
(dp2279
g237
g3
(g270
g264
Ntp2280
Rp2281
(dp2282
g274
(g275
(g19
S'\x1a\x1f:\xed\x85\t\xba?'
p2283
tp2284
Rp2285
g275
(g19
S'\x80\xa8Dld\xf3\x8e\xbe'
p2286
tp2287
Rp2288
tp2289
sbsbag3
(g305
g5
(lp2290
F0.4609204625283091
aF0.6849791549684394
aF0.4554297129830921
aF0.8753554147611479
aF0.7011439708234768
aF0.666678630284307
aF0.6778291389213065
aF0.09286853212237145
aF0.2568339287111283
aF0.32721212676152067
aF0.44580028958169826
aF0.7254098117322476
atp2291
Rp2292
(dp2293
g237
g3
(g270
g264
Ntp2294
Rp2295
(dp2296
g274
(g275
(g19
S'}\x8f\xcf\xa3\x10\xf1\xb8?'
p2297
tp2298
Rp2299
g275
(g19
S'\xb614S\xea\xee\x9a\xbe'
p2300
tp2301
Rp2302
tp2303
sbsbag3
(g305
g5
(lp2304
F0.5288492216482931
aF0.7438975779025554
aF0.9447346904380032
aF0.44106675555213015
aF0.04324196532871494
aF0.6718214808045203
aF0.9900253248856352
aF0.6368906681160773
aF0.15031408047635875
aF0.2695661602905042
aF0.6933984441809937
aF0.25152697264413804
atp2305
Rp2306
(dp2307
g237
g3
(g270
g264
Ntp2308
Rp2309
(dp2310
g274
(g275
(g19
S'\r\x9f\x9ea\xa4\xc8\xcd?'
p2311
tp2312
Rp2313
g275
(g19
S'V\x8b\x19\x86\x8d\x1d\xa0\xbe'
p2314
tp2315
Rp2316
tp2317
sbsbag3
(g305
g5
(lp2318
F0.6846218994900173
aF0.8614340415041434
aF0.9868448036752212
aF0.8183373482070047
aF0.14678719265812423
aF0.7911410686259538
aF0.7752152049533217
aF0.3825309679473966
aF0.3842338216091814
aF0.4293744410407839
aF0.9349798987569131
aF0.09338491314333786
atp2319
Rp2320
(dp2321
g237
g3
(g270
g264
Ntp2322
Rp2323
(dp2324
g274
(g275
(g19
S'U\xbd\x8b\x12\xed\xe0\xcf?'
p2325
tp2326
Rp2327
g275
(g19
S'V\xa7\xdd\xa6\xd5\xee\x97\xbe'
p2328
tp2329
Rp2330
tp2331
sbsbag3
(g305
g5
(lp2332
F0.4317784786663914
aF0.4085459544095762
aF0.9239774156249752
aF0.6456717517976525
aF0.436918834185823
aF0.8919325218338146
aF0.7023519693729237
aF0.8229422751033968
aF0.3629973105106461
aF0.4960793147855086
aF0.33604501161581846
aF0.9173628955070442
atp2333
Rp2334
(dp2335
g237
g3
(g270
g264
Ntp2336
Rp2337
(dp2338
g274
(g275
(g19
S'\x9b\xe0G\x1a\xae\xab\xaf?'
p2339
tp2340
Rp2341
g275
(g19
S'\x80H\x9e\xa9\x8c\xe8\x83\xbe'
p2342
tp2343
Rp2344
tp2345
sbsbag3
(g305
g5
(lp2346
F0.5331135744503184
aF0.8388850008450391
aF0.6156228087733326
aF0.011249795673108798
aF0.6590529285052699
aF0.9485941235389349
aF0.9746653853825374
aF0.8495866100915486
aF0.43697020407686815
aF0.48094922941703366
aF0.16086167682635222
aF0.24951011465641737
atp2347
Rp2348
(dp2349
g237
g3
(g270
g264
Ntp2350
Rp2351
(dp2352
g274
(g275
(g19
S'F\xdc\xc8\x07\xb5Z\xcb?'
p2353
tp2354
Rp2355
g275
(g19
S'\xa0a\x87\xe1\x90\xe6\xb0\xbe'
p2356
tp2357
Rp2358
tp2359
sbsbag3
(g305
g5
(lp2360
F0.8274548816265221
aF0.7057219167023422
aF0.059052122628312276
aF0.25763406217607443
aF0.3782531079221306
aF0.034856913416189794
aF0.3553463448668649
aF0.5573729843744438
aF0.9100279432585389
aF0.2030948250270751
aF0.5372819976064704
aF0.3520150924003087
atp2361
Rp2362
(dp2363
g237
g3
(g270
g264
Ntp2364
Rp2365
(dp2366
g274
(g275
(g19
S'\x06\\\xdf-\xd5n\xc5?'
p2367
tp2368
Rp2369
g275
(g19
S'\x1c=d\xf7)\xfb\xa0\xbe'
p2370
tp2371
Rp2372
tp2373
sbsbag3
(g305
g5
(lp2374
F0.23109166775555234
aF0.8781053123138626
aF0.46345286179271505
aF0.2805132161447925
aF0.6054678753080773
aF0.85528099061936
aF0.698361392676801
aF0.553095526487086
aF0.8111770361629463
aF0.04874340337403382
aF0.043352923522969156
aF0.11782353808505608
atp2375
Rp2376
(dp2377
g237
g3
(g270
g264
Ntp2378
Rp2379
(dp2380
g274
(g275
(g19
S'p\xbc\xf5n\xe4e\xcf?'
p2381
tp2382
Rp2383
g275
(g19
S'E\x83\xc6\xee\xb5i\xa7\xbe'
p2384
tp2385
Rp2386
tp2387
sbsbag3
(g305
g5
(lp2388
F0.9032441640130197
aF0.40885855055010667
aF0.3845057725780805
aF0.35351540980866847
aF0.21806033709200545
aF0.6591572916003465
aF0.016033222596090746
aF0.415641267951961
aF0.05497348958509496
aF0.03512352600684021
aF0.5131454199083587
aF0.01287335178020832
atp2389
Rp2390
(dp2391
g237
g3
(g270
g264
Ntp2392
Rp2393
(dp2394
g274
(g275
(g19
S'\xba\x8f\xac\xc8\xa94\xd0?'
p2395
tp2396
Rp2397
g275
(g19
S'%\x12\xf8\xec\xd1D\xad\xbe'
p2398
tp2399
Rp2400
tp2401
sbsbag3
(g305
g5
(lp2402
F0.9032441640130197
aF0.40885855055010667
aF0.3845057725780805
aF0.35351540980866847
aF0.21806033709200545
aF0.6591572916003465
aF0.016033222596090746
aF0.415641267951961
aF0.05497348958509496
aF0.03512352600684021
aF0.16086167682635222
aF0.24951011465641737
atp2403
Rp2404
(dp2405
g237
g3
(g270
g264
Ntp2406
Rp2407
(dp2408
g274
(g275
(g19
S'\xa6\xe6\xe1\xbb\xd1X\xd2?'
p2409
tp2410
Rp2411
g275
(g19
S'J\xfb\x1eB}\xee\xb7\xbe'
p2412
tp2413
Rp2414
tp2415
sbsbag3
(g305
g5
(lp2416
F0.8274548816265221
aF0.7057219167023422
aF0.059052122628312276
aF0.25763406217607443
aF0.3811918188826622
aF0.13889628118143926
aF0.26302327266396175
aF0.30019760882503466
aF0.3438816043200654
aF0.2752183047909933
aF0.04305865554082611
aF0.05327977779137616
atp2417
Rp2418
(dp2419
g237
g3
(g270
g264
Ntp2420
Rp2421
(dp2422
g274
(g275
(g19
S'\xa0\xf4n\x0cJ\xb4\xd1?'
p2423
tp2424
Rp2425
g275
(g19
S'\xba\x8be1J\xce\xb5\xbe'
p2426
tp2427
Rp2428
tp2429
sbsbag3
(g305
g5
(lp2430
F0.23109166775555234
aF0.25474169593233564
aF0.014993364787311392
aF0.9441435384752381
aF0.3811918188826622
aF0.13889628118143926
aF0.9208593850274949
aF0.6049090773262219
aF0.5881044909341485
aF0.8775689617417916
aF0.5131454199083587
aF0.016298987322858505
atp2431
Rp2432
(dp2433
g237
g3
(g270
g264
Ntp2434
Rp2435
(dp2436
g274
(g275
(g19
S'^\xf7\x96\xf68W\xca?'
p2437
tp2438
Rp2439
g275
(g19
S'I\xce{r\x8fi\xad\xbe'
p2440
tp2441
Rp2442
tp2443
sbsbag3
(g305
g5
(lp2444
F0.46660460788088587
aF0.8459784144332435
aF0.3474943083045918
aF0.1193564967931221
aF0.7423510043754858
aF0.5788036301445333
aF0.6716135705131677
aF0.5244193561360146
aF0.2895993109863203
aF0.5782302458313815
aF0.15164483421944175
aF0.18808036835031872
atp2445
Rp2446
(dp2447
g237
g3
(g270
g264
Ntp2448
Rp2449
(dp2450
g274
(g275
(g19
S'\x1e\xc3$\x994\xfb\xcf?'
p2451
tp2452
Rp2453
g275
(g19
S'\xed2C\x94&\x84\xac\xbe'
p2454
tp2455
Rp2456
tp2457
sbsbag3
(g305
g5
(lp2458
F0.49761724205595637
aF0.6688417559015611
aF0.9190367425182105
aF0.6665032033352789
aF0.2808569885735811
aF0.7675330306119288
aF0.26302327266396175
aF0.30019760882503466
aF0.3438816043200654
aF0.2752183047909933
aF0.04305865554082611
aF0.05327977779137616
atp2459
Rp2460
(dp2461
g237
g3
(g270
g264
Ntp2462
Rp2463
(dp2464
g274
(g275
(g19
S'&\xa2_D<7\xd0?'
p2465
tp2466
Rp2467
g275
(g19
S'\x91\xb9\x0e;\x05G\xa2\xbe'
p2468
tp2469
Rp2470
tp2471
sbsbag3
(g305
g5
(lp2472
F0.49761724205595637
aF0.9771804233442543
aF0.4969289870981789
aF0.568175643533191
aF0.09136558288932162
aF0.9335242013209507
aF0.4719134160306926
aF0.6045300627052721
aF0.08953653517650473
aF0.4088322526311411
aF0.15873601033779194
aF0.07077248092850563
atp2473
Rp2474
(dp2475
g237
g3
(g270
g264
Ntp2476
Rp2477
(dp2478
g274
(g275
(g19
S'+ab\xd3e\xf8\xcc?'
p2479
tp2480
Rp2481
g275
(g19
S'\xb3_=\xc0\x14\x93\xad\xbe'
p2482
tp2483
Rp2484
tp2485
sbsbas.