(dp0
S'generation'
p1
I7
sS'logbook'
p2
ccopy_reg
_reconstructor
p3
(cdeap.tools.support
Logbook
p4
c__builtin__
list
p5
(lp6
(dp7
S'std'
p8
cnumpy.core.multiarray
_reconstruct
p9
(cnumpy
ndarray
p10
(I0
tp11
S'b'
p12
tp13
Rp14
(I1
(I2
tp15
cnumpy
dtype
p16
(S'f8'
p17
I0
I1
tp18
Rp19
(I3
S'<'
p20
NNNI-1
I-1
I0
tp21
bI00
S'\x1d\xbdh\x86\xbb`\xb5?^1\xdb\xa7\xbc[Y?'
p22
tp23
bsS'evals'
p24
I17
sS'min'
p25
g9
(g10
(I0
tp26
g12
tp27
Rp28
(I1
(I2
tp29
g19
I00
S"\xaa03\xe9'\x99\x99?;\xc7Iml\xef\xf8>"
p30
tp31
bsS'max'
p32
g9
(g10
(I0
tp33
g12
tp34
Rp35
(I1
(I2
tp36
g19
I00
S'g\x87(\xc9\x0c\x00\xd0?\xc5\x0c\xcb,Www?'
p37
tp38
bsS'avg'
p39
g9
(g10
(I0
tp40
g12
tp41
Rp42
(I1
(I2
tp43
g19
I00
S'\xedoX\x9czT\xc5?c,\xd3d=\x06a?'
p44
tp45
bsS'gen'
p46
I0
sa(dp47
g8
g9
(g10
(I0
tp48
g12
tp49
Rp50
(I1
(I2
tp51
g19
I00
S'\x86\xcaq\xe3\x03\xa9\xb4?\r/\x9b\xfd}\xb3[?'
p52
tp53
bsg24
I12
sg25
g9
(g10
(I0
tp54
g12
tp55
Rp56
(I1
(I2
tp57
g19
I00
S"\xaa03\xe9'\x99\x99?;\xc7Iml\xef\xf8>"
p58
tp59
bsg32
g9
(g10
(I0
tp60
g12
tp61
Rp62
(I1
(I2
tp63
g19
I00
S'g\x87(\xc9\x0c\x00\xd0?kZ\x8c\x8b0by?'
p64
tp65
bsg39
g9
(g10
(I0
tp66
g12
tp67
Rp68
(I1
(I2
tp69
g19
I00
S'\x7f\xecz\xf2\x98\x07\xc6?c\xcb,\xae\xf2sa?'
p70
tp71
bsg46
I1
sa(dp72
g8
g9
(g10
(I0
tp73
g12
tp74
Rp75
(I1
(I2
tp76
g19
I00
S'\x871\xc3\xf6\x9a\xf5\xb3?\x12<\xf7\xfc\xb0x]?'
p77
tp78
bsg24
I21
sg25
g9
(g10
(I0
tp79
g12
tp80
Rp81
(I1
(I2
tp82
g19
I00
S"\xaa03\xe9'\x99\x99?;\xc7Iml\xef\xf8>"
p83
tp84
bsg32
g9
(g10
(I0
tp85
g12
tp86
Rp87
(I1
(I2
tp88
g19
I00
S'\x1cKd\xe1 \x02\xd0?9]\xfb\xc3\xf1\x83~?'
p89
tp90
bsg39
g9
(g10
(I0
tp91
g12
tp92
Rp93
(I1
(I2
tp94
g19
I00
S'k\xdc)\xda.4\xc7?2Gai\xfd\x84a?'
p95
tp96
bsg46
I2
sa(dp97
g8
g9
(g10
(I0
tp98
g12
tp99
Rp100
(I1
(I2
tp101
g19
I00
S'\xc1\xa0\x82N\x1c\xf8\xb3?\xbd\xaaL\x9f\xdcg`?'
p102
tp103
bsg24
I17
sg25
g9
(g10
(I0
tp104
g12
tp105
Rp106
(I1
(I2
tp107
g19
I00
S"\xaa03\xe9'\x99\x99?;\xc7Iml\xef\xf8>"
p108
tp109
bsg32
g9
(g10
(I0
tp110
g12
tp111
Rp112
(I1
(I2
tp113
g19
I00
S'\x1cKd\xe1 \x02\xd0?\x81"\x1a\x85\xf2\x9c\x81?'
p114
tp115
bsg39
g9
(g10
(I0
tp116
g12
tp117
Rp118
(I1
(I2
tp119
g19
I00
S'\xbfy:\x0c\x0eq\xc7?u\x12\x12P@{a?'
p120
tp121
bsg46
I3
sa(dp122
g8
g9
(g10
(I0
tp123
g12
tp124
Rp125
(I1
(I2
tp126
g19
I00
S'\xd9SHwP\xd6\xb3?x?E\xed\x86\xb2_?'
p127
tp128
bsg24
I21
sg25
g9
(g10
(I0
tp129
g12
tp130
Rp131
(I1
(I2
tp132
g19
I00
S"\xaa03\xe9'\x99\x99?;\xc7Iml\xef\xf8>"
p133
tp134
bsg32
g9
(g10
(I0
tp135
g12
tp136
Rp137
(I1
(I2
tp138
g19
I00
S'\x1cKd\xe1 \x02\xd0?\x81"\x1a\x85\xf2\x9c\x81?'
p139
tp140
bsg39
g9
(g10
(I0
tp141
g12
tp142
Rp143
(I1
(I2
tp144
g19
I00
S'\x96C\t:]\xe6\xc7?\x92[G\xdc,\xe5^?'
p145
tp146
bsg46
I4
sa(dp147
g8
g9
(g10
(I0
tp148
g12
tp149
Rp150
(I1
(I2
tp151
g19
I00
S'\xb5\x13\xc2q\xd4\xd3\xb3?\xd8\xd5\xf0\xc6\xce\x8f`?'
p152
tp153
bsg24
I16
sg25
g9
(g10
(I0
tp154
g12
tp155
Rp156
(I1
(I2
tp157
g19
I00
S"\xaa03\xe9'\x99\x99?;\xc7Iml\xef\xf8>"
p158
tp159
bsg32
g9
(g10
(I0
tp160
g12
tp161
Rp162
(I1
(I2
tp163
g19
I00
S'\x1dKd\xe1 \x02\xd0?\x81"\x1a\x85\xf2\x9c\x81?'
p164
tp165
bsg39
g9
(g10
(I0
tp166
g12
tp167
Rp168
(I1
(I2
tp169
g19
I00
S'A\xe7\xf8:\xf9\x13\xc8?@\x8b.:\xfe\x9a^?'
p170
tp171
bsg46
I5
sa(dp172
g8
g9
(g10
(I0
tp173
g12
tp174
Rp175
(I1
(I2
tp176
g19
I00
S'w\xc1\xd1!Q\x07\xb4?/M\x9d\xb3\x05\x1f`?'
p177
tp178
bsg24
I13
sg25
g9
(g10
(I0
tp179
g12
tp180
Rp181
(I1
(I2
tp182
g19
I00
S'*\x00\xf9\xd9.z\x97?;\xc7Iml\xef\xf8>'
p183
tp184
bsg32
g9
(g10
(I0
tp185
g12
tp186
Rp187
(I1
(I2
tp188
g19
I00
S'\x1dKd\xe1 \x02\xd0?\x81"\x1a\x85\xf2\x9c\x81?'
p189
tp190
bsg39
g9
(g10
(I0
tp191
g12
tp192
Rp193
(I1
(I2
tp194
g19
I00
S'n"\xad>t\x1d\xc8?\x1d\xb2\x15\xe1\x9c\x06]?'
p195
tp196
bsg46
I6
sa(dp197
g8
g9
(g10
(I0
tp198
g12
tp199
Rp200
(I1
(I2
tp201
g19
I00
S'g\xb8U\x9b\xa6\xda\xb3?p\xaa\x17jV(`?'
p202
tp203
bsg24
I21
sg25
g9
(g10
(I0
tp204
g12
tp205
Rp206
(I1
(I2
tp207
g19
I00
S'*\x00\xf9\xd9.z\x97?;\xc7Iml\xef\xf8>'
p208
tp209
bsg32
g9
(g10
(I0
tp210
g12
tp211
Rp212
(I1
(I2
tp213
g19
I00
S'\x1dKd\xe1 \x02\xd0?P\xaaV@\x1c\xb2\x81?'
p214
tp215
bsg39
g9
(g10
(I0
tp216
g12
tp217
Rp218
(I1
(I2
tp219
g19
I00
S'v?\xa6\x85\x15@\xc8?O\xe1\xf2\xe2\x8ab\\?'
p220
tp221
bsg46
I7
satp222
Rp223
(dp224
S'log_header'
p225
I01
sS'header'
p226
(S'gen'
p227
S'evals'
p228
S'fitness'
p229
tp230
sS'columns_len'
p231
NsS'buffindex'
p232
I0
sS'chapters'
p233
ccollections
defaultdict
p234
(g4
tp235
Rp236
S'fitness'
p237
g3
(g4
g5
(lp238
tp239
Rp240
(dp241
g225
I01
sg226
(g39
S'max'
p242
S'min'
p243
S'std'
p244
tp245
sg231
Nsg232
I0
sg233
g234
(g4
tp246
Rp247
sbssbsS'rndstate'
p248
(S'MT19937'
p249
g9
(g10
(I0
tp250
g12
tp251
Rp252
(I1
(I624
tp253
g16
(S'u4'
p254
I0
I1
tp255
Rp256
(I3
S'<'
p257
NNNI-1
I-1
I0
tp258
bI00
S'e\xc7\xad\x026\xe5s\x08g#\x91`\x04Cbw\xea\xe1\xb7\n\x98\x94\xaf\xc4\x1b/\xd7\xf0\xb1\x84\t\xbd\xc8t\xe2\x91F\r\xb7o\x9b\xc5x\x19\xffy\xd5\xc6\xefL\x8a\xfa\xec\x1a\x13S\xfb!v\xa7\xb0\x8d\xc0\xb0gT\xa9\xf3G\x9cK\\\x83\x1c\xff\xf3\xc1\xbb\xf9\xec\xd8\xf2\x8b\xf5\x8f\xf2\x1f1\x17#\xdf%\xebM\xee\xe5\xae<\xd0\x83\xebV\x9f\x00p\xc0\xe3*\xff\xdaZ\x9d\xfc\xe7\xcd\x00\xf7\xda\xe5\xcf\x98T\xb5\x93\rD\xbb\xf0`yA\xbb\xf1R\x06e\xf5^\x9c\x13\x1a\xd1\x81\xd0\xed\x94\x81\xc8\x815\n5La[\xa3\xd4\xb5+sP\xba/\xd6!\xf1\x0e\x1d\x03\xa2\xb3i\x96\xb5--6j<H\xec+\xc9\xcb{\x01\xb4\x1fKi\xe6\xf1Z\\\xd75w\xd5c\x8b9D\xaa\x1a_\xeb\xdbM\xc6^\xaa\x1c[\x82\xba\xa0v\x8bAm\xe7k\xae\x07\xed\xce\x940\x90p\x120qI\x95\x08\xdf\xe4\x94\x1a\xf3\xb9\xa2n\xc5\x1c6\x01\xbfK\x86~R\xf0\'\x874\xfa\xc3\x83\xff]UW\xfd\r\xb6\x9f\xb2-\xe8b\x8e_\xe9\x8f\x8d\x9bIR\xee\xa2\'\x04\x8b}\xff\xa0\x9b\xf4\x02Z\x06`\xb2\x0b\x83\xcf\x90\x0f\x9e\xbb9\x1d\x90u\x95\xa2\xec\xeaq\x1a\xd9\xcfx\x94\x1a9\xb2x\xfb~\xed*F(\x91\x86\xba\x8fN\xe0L\n\xe4\xa6>)\x95\xf0\x84\xd8\xc0 \xfd0\xaf\x8f\xe3\xbc\xc4&2_\xaeG\xb8H\xd8\x9b\xfa\x94\xe3\x86\xb5\xfa\xd4\x99\\\xdfn\xecC\xd8(\xc3W\xcb\xf2\xad\xf1he\x81\'\xcf;x\xbdD&\xc1^\xb4\x04\x08\xe2\x03\x80\xca\x98\xcf\x04\xdf\x9dZ\x97\xe7\x13\xe8G\x11)\xb4IA_\x9cj\xf1\'o\xab\xef\xa5\x10\x8e\xb7\xed~\xa7=\x01\x1c=\xa8\xfe\x0cw!kJ\xecgdq\xc5\x91B)y\x97\xcf\xe8\xc4\xb1\xef(\x1a\xfa\x92\x0c:\xaa8\x1a#1;\xb0\xaeA\x96@\x15\xce\x83xt=+]\xfeM\xbdn\xa9\xeb28\x17u\x95\x05\xc3\xd6\xe4\xae\xb6!j\xae\x00p\x0b\x1e\x83\xcd]\xd1\x9bp\xab\xd6\xa64\xe4\xf3\x01H\xd0\xbb\xcam2\xe6\xc6\x19\xed\x1b\x16\x8d9f\x0b_\xf7\xc9\xe3\xbfg\xcc\xc6gR\xf8\x17\x13\xe0\xfd\xba\xf3\x1b\xe4E\xce\xfaN\x8a\xea8/ j\x8c!`\x91\x8c\xf03\xbcP\x1d\xe2&*.\xec\x85o\xe6\xa8\x1f\xdfnTV\x89:\x13\n\x06\xddK\xe9 \x01\xa3L\x12o\xc6@\x9dRSH\xa7\x93C}\xf9L#[X\xa5\xcd9\xeb\xedsZ#\x85\xc8s\x9f\x89\xabB\xdb\xe7o\xb4\xf2\x94\tk;+\xd2\xcc\xb9\xb6\xfcjNIa\xc9\xcf\xd8ht\xf1#O\xec\x8a\xf4\x19f\xd7\x06x\xc5\xcd\xe3\xc4U\xfa\x91\xe0\xb9r#5o\n\x05=(\xff\x19D"Y\xc9P\xabRl\x98\x06\xdb\xa7V\xba\x94\xad\x00\xb2\xc6Q\xbeI\x15\xf7]>\x1a\x01\x1akX\xc5d\x93_>\x03S\xf6}\x12\x02\xef\xbd\x8bs[\xfebC\xaa\x1c\x15u\xd1\xfa\tG\x8an \x0f\x9f\xbd\x03\xa7\x08>\xc3\xc3\x9e\xd1G\xef\x83Z\x14\xc0\xfd\xe9\x0b*\xb3P\x0f\r\xdd\x82\xbc\xb7\x9f\xd7\xd0\xb38`#\xd0\x95\xceL\xb4y\xe4\xd9}R\xcdO\xead\xcf\x9e["\xef\xf9u\x10\xe1jC\x8f\x00\x14\x88A\xc6\x07POS{U\x1a\x8c\xd1\xa6\xd6hc\xdd\xc8\xe6\x10\xc1\x91{S\x9a5\xbb\xd7]\x81\xfedR\xb9\xebM\x95\xb5\x7f\xe2\xacA\xf2LiFUj\xdb\xe0\xf8\x0fb1\x9f\xbc\xda\x83\xc6ZcF\xe6\xfe\xaa["\xe8{q\xfeP\xd8\xc2D\xa9\xc4\xc0\xfa\x03XF\xbe\xe3\xcbl\x89.AV\xc3i\xc1\x87\x1e\x84\x00\xe8\x86\xdaY\xc0\xa6\x95I\xed[\xd7\x96\xcfD\xceXb\x018\x9b\xf2\xf9\x04T\x7f\xa9\xbe\x8fi\x02g\xdd\n\xd5h\xec\x1f\x19)\xce\x93-8VH\x84\x9e\x15\x84(\x91\xa5ha\xc6{\x94I\xff\ni\xc0\xe1\xf12\xde\xd6\xf2\x84{RY\xacj\x9d\xf8\x83\x9d\x10Fp\x90\x81:T\xc5\x17\xd5\xbc\xd7\xb8\x08)\xba\x81\xdc\x1c\x00\t\x1epj[\xa2\xa3\xfb\x13\xc6\x0c\x0eV\xa9`\xe9V\x1e\xa0\x03\xb7\x99\xaf\x07\x86\xed\xa1\'G`\xbe\x7f}\x80\xa0o8\xc26\xe5\xa0\xbcTk\x9cR\x80\xd8\xbb\xfbT)\x98\xf2\xa74(\xea\xa4\xe5\t\x84\x81\x16\xee\xb6\xc6\xfd$\x03\xa6}\xf2\\\xbc\xd7\xbd\xac\x14\xf6\x1f\xd2\xa9\x10@G\xc9.V\xc3Q\xcfc^\x1b\xfc7;\xf1 :\xa1\xdcBu+|\xbc\x1d\xd0}\n\xd0\\w\xba\'\x1c\xff\x0cS\x14\xb4\xd1\x89\xb5+/*gw\xf8\x81\xf6\xa9v\x8cir\xea\xfe\x08\xed\xd7\xbf\xee\x1f\x1f\xf8{\xed\x8f[=.\xc8-\xdc4\x0eB\xf4X\x03*~\x9a,\xc9^\x9e>g\'\x8b%\xa8\xba\x8b""\xa2\xbd\xa8\x16\xf7\xd3\xd9d\x9b\x0cbGt\xe5H\xdc\xf0_X\xaa6!G\x9a\xe9\x0f\xdd\xaf\xf9R\xc6\x98\xb3\xbb\xd1\xdd6F\xe3\xd0\x8f\xcbq\x83\xa0\x00\'\xda\x90\xc8\x9df\x89\xf8\x01U\xe2\xcb\x14\xc8\xbb-\xfc\xb8\x16\x04\xc9q\x98\x8d\xe7\xf3\xf9&\x9fk*\r\x9b\xce\n\x99\x1d\x19\xf2\xe8\xb8\xb9b\x7f\xce/\xd3;?s\xbb\xe8\xc8\x85\xc1\xcdj$\xaa[4\x84\xbf\x7f+\x94\x82 \x92\x88J\xa6+\xac~\x04A\xf1\xbdj\x01\x81\xa5L\xd7\xc8\x1f\x98\xb34C\xa5\x9a\x8e\xb3\x1dg\xc8Cm]P\xe3\xac#\xcb\x15\xed\x12\xea\xd8?[!\xf3\x9a:\x16\x8eM\x8b\x88h\xfe\x89\x8a\xf8\xef\xfbM\xdf\xba\x1e\x15B*\xd0\xba\xc1\xf6z\xef\x00\xbd&\x0c\xc8F\x12\xab\x8f;K\x8f\xbaT8\x05-\xe7\xa4C\x8e`9\x1a{\xa4\xea\x925 .mX<4\xe8\xb1\x1c\x9e\x96\xf4\xb8+[\xac\x91\x16\xc1=@\xdf\xc6\x17B\xa7\xe3\x88\xf9\xdd\x06\xcf\xd2\x0f\xfb\xb7\x9d\xfd/\x16\x1e\xc4\xb3E\xac\x0e\xc5t\xd7\xeebi}O\xf1\xa9\xf1\xc8\xb4\xe6\xec\x99\xc6\xe2Z\xa5\xdf=@\xca\x9b\x92\xf2\x1eY\x99\xcb\xbb~\x8dt\xda\xb7;n\x8a\xab\xd8<\xf9"MCt:\x1d\xf3\xce\x0c\x1e\x1d\x05 f\xda\x036\xe0\xe2\xb8\x8fm\xe6B\xc0\xdd\x18\xc3a\x84\xf5.\xfan\xe7\x02\x8f\xec\x9bn\xf9v\xd77>\xfccz\xb4\xfc+rX\x0cl\xe8\xdeq\xe2s\x02\xe5\x00\xa3\r\x907\x08\x02\t\xab\x16r\xf5\x9c\xadD\x16S\xbf"\xf3D\\i$\xa2\x18l\xcd\x80\xa1\xba\xe9\xe2\xf7\xe1\xed\x9cv\xceB)\x93% Q\xc6\xff\xa3\xfd+5\\E\xf0\xebb\xdcF$T\x067\xc8>a\xcc\\\x1c\xee|4\xc2s.\x8c8\x86\xd7\x9fYU\xa9iz\x8b\xbcY<\xec\x86\x8cJl\x8d^\xa5\x94\xe1Hvb\x89d\xf9/UC\xa4\xc2\x1bmO\xfc\xa9r\xf0\xf1\xdbA\x8d\xfc\xb1\x9f\xbc\x08\xeb*\xc3\x93\xae\xb9\xeaT\x98*\'(R\xe5\x8c\xda\x0b\rB\x05,\xb5*\x81\xe1H\x14\x17\x87\x11-\x95]\xfa\xadVK\xfa\xfd%\xec\xbf\xe7\x9e|\xfeW:&\xdc\xfe\xc6\xa3\xeey\xfel\x99\xa0Rp\xce\xec\x19\x1b\xe9g\xf5\xe3\xba\x10v\xd2\x0b\x9a7\x0fP\xc6}\x1c\xfe\xc38\x9e\xd6\xbb\x03\x18geQ\x1f\x07\\|\x18]\xe0 \x15J\xd3`n\xeex\xe6\'\xb6%k\xbe+$t\x86\xe0C\xc3\x9e\x86w\x85\xd7\xdf\xde\xdc\xeet\xf8\x00\x9e\xf8\x03\x01_\xa9*\x8b0m\xdda\x92\xa8\x9e\x90U\xe4W\xf4\xcby\xe5m\x1ff\x83o\x06\x86k\x0c\xf9f\xc8\xbc_\x82\xf5\xab\x1c\x1e\xa3\xefp\xcaC[1n\'\xeb\x83\x8b\xa8\x90i\xfc\xc0\xcbH\xae\xb6mH\xbf\x88j_\xde`\xf8\xcc\x0bRQ\xe5\x9a.\x8d\xc1A\x1a\x90\xdb:2\xa3\xb4\xb8[\xa1G\xf7\xe2\xb4\xf2=^\x9f(\xe2!\x7f\xd05\x81\x1b\xc0\xa1\xb7\xef>\xc5.$ft!\x99\xf5ud9\xdc\xb8\xed-\xec\xde\x10?:\xe5\x1az\xad\x0c\x17\x1d\xb1\xbe\xdd\xfc\xe6\xa8\xf0\xf0-\xd2\x1b;\x06\x7f@\xa1\x95\xf6\xf3j\teS\x93\xe4\xa6\xe8\xff\x08b\xf4\xfb\xb5\xd4\x94\x01\x15(\x95#X\'\xa1B\xa3q\xf7\x8cD\xe9\xbe\xe3\xb5\x040\xb7Z~\xd4dq\x0bt\x9dn\x90I\xa6~\xd9_\x8e\xc2\xfd\xb2\x81\xa5\x10d\xfb\xd8\xd2|\xe0p\x16\xd6x\xbb8\x91\x8d\xc7[X%c\xa3\x05x\x8e\x8c\x8a\x81s\x90oM{xv\xe7O\xef~a\x94.\x82\xdbb\xaa/\n\xcb|\xed\x15$M\x0f5\x9a\x10& \xcey\xc8e\x83f3C!\xc1\xd9\xc4l\x07\n\x1a\xa2\xf51<\xb1\xf8l\xad\xa2\x82\xca\xcd\xb5\xccm\xce\x19o{s\x9f\xac\xab\xc9\xcf\x94\x99\xd0\x1c\xb8\xa4\x0b\x9f/-\xb7\xa4\xcb\x08\xc6B)\xf3D\xdey\xae\x1aV^Vp\xca\x19E\x1f\x07\x11\t\xaf\x1d\x14\xae\x8d\xb69\xc1:\x9b\xfc0\x817\x01\xf8X\x07\x16\x829\xe1Qz\xdex\xe9\xf6\x94\xa6E$\xd7|\xe4)\x1e\xda\xcb\x8d:o\xa7\x1e\xf7\xa6L/I(Or\xb2\x1eQA\xc7\xb4p\x0fu\xad\xd1\x0c"\xdcs$E\xf6j\\i\x05=f\xc6\xfcT\xc2\xe4\xec\xa4n\x96m\xbb\\\'qP\xf0\xb2\x90\x17\x01;\xa1K\xd8c\xa7Y\xcd\xb6{\x8a$n\x88_Z\x9a\tE\xac\x0f5"~\xd4F\x05\x9b\x05v\xc3\xf7\xc0\xf2u\xb4\xda\x80\xc3Ey\xc0\xaf\n\xa3B\x1c^QI`K\x1d\x8c\xc1%\xdc\x0b1\x0fT\x9b\xb8\'\xc2\xf5\xf2\xc3B\xb4\x9a\x01L\x17\xad\x8a/\x9a\x8f\x93_>\x8cY\x90\xcc\xe4\x84dBdK\x98\x9bt\xb2Y\x03\xa5\xdc&sX\x06rQ_\x05rqX\x0eH\xec\x88`(\xd6\xe5.~;\xba\xf9\xa2\xa5}\xa9\xf5KqhQ\xf6YA\x86V\x86L\x92K\x1c\xab[Z\xceze\xea\xdd\r\xc9o\x14\x17J\x0e\x90j\x15\xbe\xc0\xca7L\xe8\x17\xd91m\x0c\x9c\x80\'\xc5\xfdv\xea-\xbd.\xeb\xd2m@\x92\x19\xea\xf5d$\x19w^~\x12\xe7\xdaZ\x05H\xec\x13\xe3\xfferP~\x17\xb6O\x1ef\xee\x90\xd35X*\xcaF\xbc\x96\xea\x1c2b\xaf\x19\x99\xed\xf2\xe41'
p259
tp260
bI512
I0
F0.0
tp261
sS'halloffame'
p262
g3
(cdeap.tools.support
HallOfFame
p263
c__builtin__
object
p264
Ntp265
Rp266
(dp267
S'keys'
p268
(lp269
g3
(cdeap.creator
FitnessMulti
p270
g264
Ntp271
Rp272
(dp273
S'wvalues'
p274
(cnumpy.core.multiarray
scalar
p275
(g19
S'^\x81U\xff\xa7\x01\xd0?'
p276
tp277
Rp278
g275
(g19
S'}\xe6\x88\xd2\x97\x92A\xbe'
p279
tp280
Rp281
tp282
sbag3
(g270
g264
Ntp283
Rp284
(dp285
g274
(g275
(g19
S'\x1cKd\xe1 \x02\xd0?'
p286
tp287
Rp288
g275
(g19
S'\xf4\xb8\xb1{b_F\xbe'
p289
tp290
Rp291
tp292
sbag3
(g270
g264
Ntp293
Rp294
(dp295
g274
(g275
(g19
S'\x1dKd\xe1 \x02\xd0?'
p296
tp297
Rp298
g275
(g19
S'\xf4\xb8\xb1{b_F\xbe'
p299
tp300
Rp301
tp302
sbasS'items'
p303
(lp304
g3
(cdeap.creator
Individual
p305
g5
(lp306
F0.9326411964497724
aF0.0048866317564058015
aF0.18141325995626256
aF0.26115195023978444
atp307
Rp308
(dp309
g237
g294
sbag3
(g305
g5
(lp310
F0.9326411964497724
aF0.0048866317564058015
aF0.18141325995626256
aF0.8272103743729368
atp311
Rp312
(dp313
g237
g284
sbag3
(g305
g5
(lp314
F0.8075188003610211
aF0.6662420079332031
aF0.18141325995626256
aF0.8272103743729368
atp315
Rp316
(dp317
g237
g272
sbasS'maxsize'
p318
I3
sS'similar'
p319
coperator
eq
p320
sbsS'population'
p321
(lp322
g3
(g305
g5
(lp323
F0.12761584663663694
aF0.046511431655207214
aF0.14718952098253135
aF0.056692280921534
atp324
Rp325
(dp326
g237
g3
(g270
g264
Ntp327
Rp328
(dp329
g274
(g275
(g19
S'\xc8U\x95Jz\x84\xcc?'
p330
tp331
Rp332
g275
(g19
S'\xf0\xd6\xb2\xc3Vj\x95\xbe'
p333
tp334
Rp335
tp336
sbsbag3
(g305
g5
(lp337
F0.09281881444842477
aF0.692303857994286
aF0.17284759609185207
aF0.7105349836469141
atp338
Rp339
(dp340
g237
g3
(g270
g264
Ntp341
Rp342
(dp343
g274
(g275
(g19
S'`\x82t\xbd\x92w\xcc?'
p344
tp345
Rp346
g275
(g19
S'\xd0"\xf9\xa1Z\x0f\x95\xbe'
p347
tp348
Rp349
tp350
sbsbag3
(g305
g5
(lp351
F0.9126428914683761
aF0.5731797192246801
aF0.26439405574485364
aF0.11276684737030085
atp352
Rp353
(dp354
g237
g3
(g270
g264
Ntp355
Rp356
(dp357
g274
(g275
(g19
S'\xf8\xbd\xc2\xa7\xd0\xfb\xce?'
p358
tp359
Rp360
g275
(g19
S'\xa9=7i@8\x92\xbe'
p361
tp362
Rp363
tp364
sbsbag3
(g305
g5
(lp365
F0.43461019440417215
aF0.9296808419921171
aF0.22388683092542905
aF0.963295826745684
atp366
Rp367
(dp368
g237
g3
(g270
g264
Ntp369
Rp370
(dp371
g274
(g275
(g19
S'f\xcf\xe0\x07\x7f\xe3\xcc?'
p372
tp373
Rp374
g275
(g19
S's{d/\x02\x1c\x91\xbe'
p375
tp376
Rp377
tp378
sbsbag3
(g305
g5
(lp379
F0.3807017301325143
aF0.14114060661378125
aF0.9492754068414831
aF0.41325427801283443
atp380
Rp381
(dp382
g237
g3
(g270
g264
Ntp383
Rp384
(dp385
g274
(g275
(g19
S'\xed\x02\xab\xf9T\xbb\xa5?'
p386
tp387
Rp388
g275
(g19
S'VRE\x16\xc9\x0bt\xbe'
p389
tp390
Rp391
tp392
sbsbag3
(g305
g5
(lp393
F0.9326411964497724
aF0.0048866317564058015
aF0.3765657856577316
aF0.5167126024173341
atp394
Rp395
(dp396
g237
g3
(g270
g264
Ntp397
Rp398
(dp399
g274
(g275
(g19
S'\x93|C\xd3\x8a\x15\xcf?'
p400
tp401
Rp402
g275
(g19
S'\xc3\x84]g\xb4\x9b\xa0\xbe'
p403
tp404
Rp405
tp406
sbsbag3
(g305
g5
(lp407
F0.019780435990111145
aF0.29056271122081845
aF0.8647507400641883
aF0.9291404532286843
atp408
Rp409
(dp410
g237
g3
(g270
g264
Ntp411
Rp412
(dp413
g274
(g275
(g19
S'v\xd9\xb1\xf0\t\x17\xa0?'
p414
tp415
Rp416
g275
(g19
S'\xd0<\x98/\x0c2m\xbe'
p417
tp418
Rp419
tp420
sbsbag3
(g305
g5
(lp421
F0.40139706642725803
aF0.4636301567968726
aF0.22166841962685746
aF0.42603734944172555
atp422
Rp423
(dp424
g237
g3
(g270
g264
Ntp425
Rp426
(dp427
g274
(g275
(g19
S'}\xad\xde<\x13\xe9\xcc?'
p428
tp429
Rp430
g275
(g19
S'\xeai\x06\xa8f\x90\x94\xbe'
p431
tp432
Rp433
tp434
sbsbag3
(g305
g5
(lp435
F0.7632204453439506
aF0.10865623611370467
aF0.6674817387708156
aF0.8169588731963093
atp436
Rp437
(dp438
g237
g3
(g270
g264
Ntp439
Rp440
(dp441
g274
(g275
(g19
S'\x10w\x88s\x8d{\xbe?'
p442
tp443
Rp444
g275
(g19
S'6vV\x13\x0e\x12\x98\xbe'
p445
tp446
Rp447
tp448
sbsbag3
(g305
g5
(lp449
F0.8075188003610211
aF0.6662420079332031
aF0.1185094057097359
aF0.26115195023978444
atp450
Rp451
(dp452
g237
g3
(g270
g264
Ntp453
Rp454
(dp455
g274
(g275
(g19
S'\xa8\xae\xc9{\xa0\xff\xcf?'
p456
tp457
Rp458
g275
(g19
S'\xe4!X\xee\xe8\x9b0\xbe'
p459
tp460
Rp461
tp462
sbsbag3
(g305
g5
(lp463
F0.7679590149853223
aF0.9352021917022737
aF0.7133825403461854
aF0.15201329115945006
atp464
Rp465
(dp466
g237
g3
(g270
g264
Ntp467
Rp468
(dp469
g274
(g275
(g19
S'\x1d\x1db\x86\x89[\xbb?'
p470
tp471
Rp472
g275
(g19
S'\xce\xcd\xaaFEC\x9c\xbe'
p473
tp474
Rp475
tp476
sbsbag3
(g305
g5
(lp477
F0.033992079534434616
aF0.7843631563519854
aF0.6804872405500975
aF0.9617345899973814
atp478
Rp479
(dp480
g237
g3
(g270
g264
Ntp481
Rp482
(dp483
g274
(g275
(g19
S'\xe0\xad\xc8jb\x97\xae?'
p484
tp485
Rp486
g275
(g19
S'\n\x144\x00_\xcc|\xbe'
p487
tp488
Rp489
tp490
sbsbag3
(g305
g5
(lp491
F0.05646059860451447
aF0.8431849444878685
aF0.97123332653226
aF0.37257120937677635
atp492
Rp493
(dp494
g237
g3
(g270
g264
Ntp495
Rp496
(dp497
g274
(g275
(g19
S"\xaa03\xe9'\x99\x99?"
p498
tp499
Rp500
g275
(g19
S'C;\x87\x8f\xaavi\xbe'
p501
tp502
Rp503
tp504
sbsbag3
(g305
g5
(lp505
F0.4214900443737729
aF0.12969527639767353
aF0.9243938595274076
aF0.41576501843521674
atp506
Rp507
(dp508
g237
g3
(g270
g264
Ntp509
Rp510
(dp511
g274
(g275
(g19
S'\xc4\x1fA]\x89\xf2\xa7?'
p512
tp513
Rp514
g275
(g19
S'\x10\x11\xac\xc7b\xffu\xbe'
p515
tp516
Rp517
tp518
sbsbag3
(g305
g5
(lp519
F0.0543015141714388
aF0.612745231016173
aF0.7111433730290212
aF0.18862509222641966
atp520
Rp521
(dp522
g237
g3
(g270
g264
Ntp523
Rp524
(dp525
g274
(g275
(g19
S'\xc6d\xd3Qds\xad?'
p526
tp527
Rp528
g275
(g19
S'hs\xef`\xe1\x96|\xbe'
p529
tp530
Rp531
tp532
sbsbag3
(g305
g5
(lp533
F0.15935541870228653
aF0.13247867633561383
aF0.6048431916572001
aF0.9879823450615495
atp534
Rp535
(dp536
g237
g3
(g270
g264
Ntp537
Rp538
(dp539
g274
(g275
(g19
S'j\x0e\xe2\xfej\xd1\xb8?'
p540
tp541
Rp542
g275
(g19
S'\xbb\xb5\x8b\xbe\x15c\x86\xbe'
p543
tp544
Rp545
tp546
sbsbag3
(g305
g5
(lp547
F0.056635201477040376
aF0.3302717889739343
aF0.5243395515146844
aF0.624520102480484
atp548
Rp549
(dp550
g237
g3
(g270
g264
Ntp551
Rp552
(dp553
g274
(g275
(g19
S'\xb3q\xd0\x96\x97\xea\xb9?'
p554
tp555
Rp556
g275
(g19
S'e5\xc2\x9b\x0e\x95\x87\xbe'
p557
tp558
Rp559
tp560
sbsbag3
(g305
g5
(lp561
F0.5068886998313445
aF0.9724124967826996
aF0.876224535231549
aF0.03441185999680241
atp562
Rp563
(dp564
g237
g3
(g270
g264
Ntp565
Rp566
(dp567
g274
(g275
(g19
S'\x95\x98Z\xa7\xc9\x85\xae?'
p568
tp569
Rp570
g275
(g19
S'd\x8b\xc3\xeb\xdb;\x82\xbe'
p571
tp572
Rp573
tp574
sbsbag3
(g305
g5
(lp575
F0.7632204453439506
aF0.10865623611370467
aF0.6674817387708156
aF0.11276684737030085
atp576
Rp577
(dp578
g237
g3
(g270
g264
Ntp579
Rp580
(dp581
g274
(g275
(g19
S'\x10w\x88s\x8d{\xbe?'
p582
tp583
Rp584
g275
(g19
S'6vV\x13\x0e\x12\x98\xbe'
p585
tp586
Rp587
tp588
sbsbag3
(g305
g5
(lp589
F0.9126428914683761
aF0.5731797192246801
aF0.26439405574485364
aF0.8169588731963093
atp590
Rp591
(dp592
g237
g3
(g270
g264
Ntp593
Rp594
(dp595
g274
(g275
(g19
S'\xf6\xbd\xc2\xa7\xd0\xfb\xce?'
p596
tp597
Rp598
g275
(g19
S'\xa7=7i@8\x92\xbe'
p599
tp600
Rp601
tp602
sbsbag3
(g305
g5
(lp603
F0.8075188003610211
aF0.6662420079332031
aF0.3765657856577316
aF0.5167126024173341
atp604
Rp605
(dp606
g237
g3
(g270
g264
Ntp607
Rp608
(dp609
g274
(g275
(g19
S'\xa6k\xa1\x10\xff\xb9\xcd?'
p610
tp611
Rp612
g275
(g19
S'@_\xc1\x9e69\xa3\xbe'
p613
tp614
Rp615
tp616
sbsbag3
(g305
g5
(lp617
F0.9326411964497724
aF0.0048866317564058015
aF0.1185094057097359
aF0.26115195023978444
atp618
Rp619
(dp620
g237
g3
(g270
g264
Ntp621
Rp622
(dp623
g274
(g275
(g19
S'VG\xce\x7f\xb2\xff\xcf?'
p624
tp625
Rp626
g275
(g19
S'\xd9L\x80&{\xcc0\xbe'
p627
tp628
Rp629
tp630
sbsbag3
(g305
g5
(lp631
F0.8075188003610211
aF0.6662420079332031
aF0.22388683092542905
aF0.963295826745684
atp632
Rp633
(dp634
g237
g3
(g270
g264
Ntp635
Rp636
(dp637
g274
(g275
(g19
S'\xb0\xb1\xd9\xaf2\xc9\xcc?'
p638
tp639
Rp640
g275
(g19
S'\x04\xe4\xb6[7\xb4\x8c\xbe'
p641
tp642
Rp643
tp644
sbsbag3
(g305
g5
(lp645
F0.8925928425261341
aF0.8343684627500405
aF0.0032639606972760804
aF0.24978064174132675
atp646
Rp647
(dp648
g237
g3
(g270
g264
Ntp649
Rp650
(dp651
g274
(g275
(g19
S'\x80\x04[\x93\xc2\xff\xcf?'
p652
tp653
Rp654
g275
(g19
S'Sl\xe6\xf1Lm$\xbe'
p655
tp656
Rp657
tp658
sbsbag3
(g305
g5
(lp659
F0.43461019440417215
aF0.9296808419921171
aF0.1185094057097359
aF0.26115195023978444
atp660
Rp661
(dp662
g237
g3
(g270
g264
Ntp663
Rp664
(dp665
g274
(g275
(g19
S'8\x0c\t,\x81\xff\xcf?'
p666
tp667
Rp668
g275
(g19
S'c1*#\xe0%9\xbe'
p669
tp670
Rp671
tp672
sbsbag3
(g305
g5
(lp673
F0.40139706642725803
aF0.4636301567968726
aF0.22166841962685746
aF0.11276684737030085
atp674
Rp675
(dp676
g237
g3
(g270
g264
Ntp677
Rp678
(dp679
g274
(g275
(g19
S'~\xad\xde<\x13\xe9\xcc?'
p680
tp681
Rp682
g275
(g19
S'\xebi\x06\xa8f\x90\x94\xbe'
p683
tp684
Rp685
tp686
sbsbag3
(g305
g5
(lp687
F0.9126428914683761
aF0.5731797192246801
aF0.26439405574485364
aF0.42603734944172555
atp688
Rp689
(dp690
g237
g3
(g270
g264
Ntp691
Rp692
(dp693
g274
(g275
(g19
S'\xf6\xbd\xc2\xa7\xd0\xfb\xce?'
p694
tp695
Rp696
g275
(g19
S'\xa8=7i@8\x92\xbe'
p697
tp698
Rp699
tp700
sbsbag3
(g305
g5
(lp701
F0.9326411964497724
aF0.0048866317564058015
aF0.14718952098253135
aF0.056692280921534
atp702
Rp703
(dp704
g237
g3
(g270
g264
Ntp705
Rp706
(dp707
g274
(g275
(g19
S'g\x87(\xc9\x0c\x00\xd0?'
p708
tp709
Rp710
g275
(g19
S'+\x01!xj\xb18\xbe'
p711
tp712
Rp713
tp714
sbsbag3
(g305
g5
(lp715
F0.12761584663663694
aF0.046511431655207214
aF0.3765657856577316
aF0.5167126024173341
atp716
Rp717
(dp718
g237
g3
(g270
g264
Ntp719
Rp720
(dp721
g274
(g275
(g19
S'\x8alj\xaa{\x85\xc5?'
p722
tp723
Rp724
g275
(g19
S'\x83\xd5\xf6E\xb4f\x95\xbe'
p725
tp726
Rp727
tp728
sbsbag3
(g305
g5
(lp729
F0.6123781846364459
aF0.5585351699732163
aF0.04481858778662828
aF0.25798399114852755
atp730
Rp731
(dp732
g237
g3
(g270
g264
Ntp733
Rp734
(dp735
g274
(g275
(g19
S'\x85\xb8\xa1\xf1\xc9\xff\xcf?'
p736
tp737
Rp738
g275
(g19
S'\xc0c9^\xb4\xbf$\xbe'
p739
tp740
Rp741
tp742
sbsbag3
(g305
g5
(lp743
F0.7805171856454487
aF0.7025557659620217
aF0.6841691763368649
aF0.5432882117245383
atp744
Rp745
(dp746
g237
g3
(g270
g264
Ntp747
Rp748
(dp749
g274
(g275
(g19
S'0\x9d\xf7\xe5\xc7\x9f\xbe?'
p750
tp751
Rp752
g275
(g19
S'\x9a\xc6\xb7\xf2\xf0\xf5\x9f\xbe'
p753
tp754
Rp755
tp756
sbsbag3
(g305
g5
(lp757
F0.4421402715923517
aF0.4703755846334704
aF0.18141325995626256
aF0.8272103743729368
atp758
Rp759
(dp760
g237
g3
(g270
g264
Ntp761
Rp762
(dp763
g274
(g275
(g19
S'%\xd0\x11\xc9\x12\xaf\xcd?'
p764
tp765
Rp766
g275
(g19
S'n\xcb^\x98\x93\x83\x94\xbe'
p767
tp768
Rp769
tp770
sbsbag3
(g305
g5
(lp771
F0.6545440660546487
aF0.4548698967975767
aF0.8741551698689854
aF0.733897017651204
atp772
Rp773
(dp774
g237
g3
(g270
g264
Ntp775
Rp776
(dp777
g274
(g275
(g19
S'\x9bA|\x05\x9d\xa2\xae?'
p778
tp779
Rp780
g275
(g19
S'\x1d\x9aR\x0f&\xde\x82\xbe'
p781
tp782
Rp783
tp784
sbsbag3
(g305
g5
(lp785
F0.9906621195647208
aF0.6155731275666964
aF0.6345691727914193
aF0.17902522728884118
atp786
Rp787
(dp788
g237
g3
(g270
g264
Ntp789
Rp790
(dp791
g274
(g275
(g19
S'\x13 \xa9\x81-\x02\xc2?'
p792
tp793
Rp794
g275
(g19
S'\x93\xdfC#Q\xcb\xa4\xbe'
p795
tp796
Rp797
tp798
sbsbag3
(g305
g5
(lp799
F0.7202053851416111
aF0.2414319031943195
aF0.6419073218183151
aF0.2218157107306019
atp800
Rp801
(dp802
g237
g3
(g270
g264
Ntp803
Rp804
(dp805
g274
(g275
(g19
S'\x0e\x08\x8a\xa2\xb0\xbf\xc1?'
p806
tp807
Rp808
g275
(g19
S'\xf7G\xb0\x1dYx\x9e\xbe'
p809
tp810
Rp811
tp812
sbsbag3
(g305
g5
(lp813
F0.9126428914683761
aF0.5731797192246801
aF0.26439405574485364
aF0.8169588731963093
atp814
Rp815
(dp816
g237
g3
(g270
g264
Ntp817
Rp818
(dp819
g274
(g275
(g19
S'\xf8\xbd\xc2\xa7\xd0\xfb\xce?'
p820
tp821
Rp822
g275
(g19
S'\xa7=7i@8\x92\xbe'
p823
tp824
Rp825
tp826
sbsbag3
(g305
g5
(lp827
F0.9776050658086548
aF0.9224346500624568
aF0.052812173937098694
aF0.7494881799360246
atp828
Rp829
(dp830
g237
g3
(g270
g264
Ntp831
Rp832
(dp833
g274
(g275
(g19
S'\n\xe3b\x07\xd6\xff\xcf?'
p834
tp835
Rp836
g275
(g19
S'\x03\xd3\xfc\x8d\xc1\x9c%\xbe'
p837
tp838
Rp839
tp840
sbsbag3
(g305
g5
(lp841
F0.8075188003610211
aF0.6662420079332031
aF0.22388683092542905
aF0.963295826745684
atp842
Rp843
(dp844
g237
g3
(g270
g264
Ntp845
Rp846
(dp847
g274
(g275
(g19
S'\xb3\xb1\xd9\xaf2\xc9\xcc?'
p848
tp849
Rp850
g275
(g19
S'\x02\xe4\xb6[7\xb4\x8c\xbe'
p851
tp852
Rp853
tp854
sbsbag3
(g305
g5
(lp855
F0.8075188003610211
aF0.6662420079332031
aF0.1185094057097359
aF0.26115195023978444
atp856
Rp857
(dp858
g237
g3
(g270
g264
Ntp859
Rp860
(dp861
g274
(g275
(g19
S'\xa8\xae\xc9{\xa0\xff\xcf?'
p862
tp863
Rp864
g275
(g19
S'\xe4!X\xee\xe8\x9b0\xbe'
p865
tp866
Rp867
tp868
sbsbag3
(g305
g5
(lp869
F0.7355590524818166
aF0.9132316143006353
aF0.844452437711316
aF0.39744420795090707
atp870
Rp871
(dp872
g237
g3
(g270
g264
Ntp873
Rp874
(dp875
g274
(g275
(g19
S'\x1ag4}\x01 \xb1?'
p876
tp877
Rp878
g275
(g19
S'@e\xc00>3\x89\xbe'
p879
tp880
Rp881
tp882
sbsbag3
(g305
g5
(lp883
F0.6741906865056114
aF0.0048866317564058015
aF0.14718952098253135
aF0.056692280921534
atp884
Rp885
(dp886
g237
g3
(g270
g264
Ntp887
Rp888
(dp889
g274
(g275
(g19
S'\xedm\x06s\xda\xe7\xcf?'
p890
tp891
Rp892
g275
(g19
S'"6=f\x88*`\xbe'
p893
tp894
Rp895
tp896
sbsbag3
(g305
g5
(lp897
F0.2292183011093386
aF0.6920905776433975
aF0.448946169626119
aF0.10824518682078033
atp898
Rp899
(dp900
g237
g3
(g270
g264
Ntp901
Rp902
(dp903
g274
(g275
(g19
S':\xb5#;\x81K\xc4?'
p904
tp905
Rp906
g275
(g19
S'\x06T\xdd\xf6\xbeY\x93\xbe'
p907
tp908
Rp909
tp910
sbsbag3
(g305
g5
(lp911
F0.9323648864725478
aF0.5526024854546211
aF0.7802513018030229
aF0.619987689515271
atp912
Rp913
(dp914
g237
g3
(g270
g264
Ntp915
Rp916
(dp917
g274
(g275
(g19
S'\x82\xb9?\xf3^Y\xb5?'
p918
tp919
Rp920
g275
(g19
S'$+\xa52Dd\x90\xbe'
p921
tp922
Rp923
tp924
sbsbag3
(g305
g5
(lp925
F0.2952166603049513
aF0.32500549288282243
aF0.9539221522562529
aF0.21106780493407773
atp926
Rp927
(dp928
g237
g3
(g270
g264
Ntp929
Rp930
(dp931
g274
(g275
(g19
S'\xdb7\xbb\x18\x8eT\xa4?'
p932
tp933
Rp934
g275
(g19
S'^)\xcf4\x1dgs\xbe'
p935
tp936
Rp937
tp938
sbsbag3
(g305
g5
(lp939
F0.950605685931203
aF0.21687193686315898
aF0.44451615791835586
aF0.7735187379919692
atp940
Rp941
(dp942
g237
g3
(g270
g264
Ntp943
Rp944
(dp945
g274
(g275
(g19
S'H\x91m\x96b\xfb\xcc?'
p946
tp947
Rp948
g275
(g19
S'\x05WF{\x8b\xff\xa8\xbe'
p949
tp950
Rp951
tp952
sbsbag3
(g305
g5
(lp953
F0.6122672186667543
aF0.6551913765283112
aF0.7668162610284169
aF0.8686036249404471
atp954
Rp955
(dp956
g237
g3
(g270
g264
Ntp957
Rp958
(dp959
g274
(g275
(g19
S'\x82SP#R\x1d\xb6?'
p960
tp961
Rp962
g275
(g19
S'\xaa\x9f\x10\xf9\xda\x1b\x90\xbe'
p963
tp964
Rp965
tp966
sbsbag3
(g305
g5
(lp967
F0.5974700646644324
aF0.17652837984809477
aF0.26735019311004926
aF0.5151186215339791
atp968
Rp969
(dp970
g237
g3
(g270
g264
Ntp971
Rp972
(dp973
g274
(g275
(g19
S'Z\x8e\xff\x1b\x00\xc2\xce?'
p974
tp975
Rp976
g275
(g19
S'\xb5\xae\xfcu`\xbc\x92\xbe'
p977
tp978
Rp979
tp980
sbsbag3
(g305
g5
(lp981
F0.8075188003610211
aF0.6662420079332031
aF0.14718952098253135
aF0.056692280921534
atp982
Rp983
(dp984
g237
g3
(g270
g264
Ntp985
Rp986
(dp987
g274
(g275
(g19
S'\xa9\xd1\xd7\xe8\x0c\x00\xd0?'
p988
tp989
Rp990
g275
(g19
S'&o\x83\x1ex\xe18\xbe'
p991
tp992
Rp993
tp994
sbsbag3
(g305
g5
(lp995
F0.6741906865056114
aF0.0048866317564058015
aF0.1185094057097359
aF0.26115195023978444
atp996
Rp997
(dp998
g237
g3
(g270
g264
Ntp999
Rp1000
(dp1001
g274
(g275
(g19
S'\xbd\x92{\x97 \x00\xd0?'
p1002
tp1003
Rp1004
g275
(g19
S"^\xf4\x9d\xae'q6\xbe"
p1005
tp1006
Rp1007
tp1008
sbsbag3
(g305
g5
(lp1009
F0.4685335220313739
aF0.885785988620683
aF0.4530897415316768
aF0.4958831755904285
atp1010
Rp1011
(dp1012
g237
g3
(g270
g264
Ntp1013
Rp1014
(dp1015
g274
(g275
(g19
S'Jo\xc0\x0c\xe2\xde\xc7?'
p1016
tp1017
Rp1018
g275
(g19
S'\xe3b\x17,\xbdu\x9d\xbe'
p1019
tp1020
Rp1021
tp1022
sbsbag3
(g305
g5
(lp1023
F0.9326411964497724
aF0.4636301567968726
aF0.22166841962685746
aF0.11276684737030085
atp1024
Rp1025
(dp1026
g237
g3
(g270
g264
Ntp1027
Rp1028
(dp1029
g274
(g275
(g19
S'J\xc3Z\x9alf\xce?'
p1030
tp1031
Rp1032
g275
(g19
S'\xbfO\x93\x8a\xab\x82\x94\xbe'
p1033
tp1034
Rp1035
tp1036
sbsbag3
(g305
g5
(lp1037
F0.9126428914683761
aF0.5731797192246801
aF0.26439405574485364
aF0.42603734944172555
atp1038
Rp1039
(dp1040
g237
g3
(g270
g264
Ntp1041
Rp1042
(dp1043
g274
(g275
(g19
S'\xf6\xbd\xc2\xa7\xd0\xfb\xce?'
p1044
tp1045
Rp1046
g275
(g19
S'\xa7=7i@8\x92\xbe'
p1047
tp1048
Rp1049
tp1050
sbsbag3
(g305
g5
(lp1051
F0.9326411964497724
aF0.5731797192246801
aF0.26439405574485364
aF0.42603734944172555
atp1052
Rp1053
(dp1054
g237
g3
(g270
g264
Ntp1055
Rp1056
(dp1057
g274
(g275
(g19
S'\xf6\x1a\xc3\xd5\xdb\xf6\xce?'
p1058
tp1059
Rp1060
g275
(g19
S'\x80i\x0b\x94\x15\xc1\x93\xbe'
p1061
tp1062
Rp1063
tp1064
sbsbag3
(g305
g5
(lp1065
F0.9126428914683761
aF0.0048866317564058015
aF0.1185094057097359
aF0.26115195023978444
atp1066
Rp1067
(dp1068
g237
g3
(g270
g264
Ntp1069
Rp1070
(dp1071
g274
(g275
(g19
S'\x8bGh\x9d\xb2\xff\xcf?'
p1072
tp1073
Rp1074
g275
(g19
S'+V\xb7\xcd:\xd60\xbe'
p1075
tp1076
Rp1077
tp1078
sbsbag3
(g305
g5
(lp1079
F0.40139706642725803
aF0.0048866317564058015
aF0.1185094057097359
aF0.26115195023978444
atp1080
Rp1081
(dp1082
g237
g3
(g270
g264
Ntp1083
Rp1084
(dp1085
g274
(g275
(g19
S'\xf6\x8aj\x9e\xae\xed\xcf?'
p1086
tp1087
Rp1088
g275
(g19
S'X.\n&{\xfa`\xbe'
p1089
tp1090
Rp1091
tp1092
sbsbag3
(g305
g5
(lp1093
F0.9126428914683761
aF0.5731797192246801
aF0.26439405574485364
aF0.11276684737030085
atp1094
Rp1095
(dp1096
g237
g3
(g270
g264
Ntp1097
Rp1098
(dp1099
g274
(g275
(g19
S'\xf8\xbd\xc2\xa7\xd0\xfb\xce?'
p1100
tp1101
Rp1102
g275
(g19
S'\xa7=7i@8\x92\xbe'
p1103
tp1104
Rp1105
tp1106
sbsbag3
(g305
g5
(lp1107
F0.4421402715923517
aF0.4703755846334704
aF0.14718952098253135
aF0.056692280921534
atp1108
Rp1109
(dp1110
g237
g3
(g270
g264
Ntp1111
Rp1112
(dp1113
g274
(g275
(g19
S'\xc3]\xee\xaf\xb4\xf2\xcf?'
p1114
tp1115
Rp1116
g275
(g19
S'\x8c\x16\x85\x91P\x07\\\xbe'
p1117
tp1118
Rp1119
tp1120
sbsbag3
(g305
g5
(lp1121
F0.759620265837516
aF0.08548742028709766
aF0.10348558285811671
aF0.15723496125603542
atp1122
Rp1123
(dp1124
g237
g3
(g270
g264
Ntp1125
Rp1126
(dp1127
g274
(g275
(g19
S'2\xc2\x9d\x9c\xb2\xff\xcf?'
p1128
tp1129
Rp1130
g275
(g19
S'\xaf\x9d\x05\xafV\xd5.\xbe'
p1131
tp1132
Rp1133
tp1134
sbsbag3
(g305
g5
(lp1135
F0.33852143078410835
aF0.25395417294237166
aF0.5602701022945218
aF0.062142629703175745
atp1136
Rp1137
(dp1138
g237
g3
(g270
g264
Ntp1139
Rp1140
(dp1141
g274
(g275
(g19
S'62\x97\x12!F\xc1?'
p1142
tp1143
Rp1144
g275
(g19
S'I\x9bf\x9b\xf4\xe2\x8f\xbe'
p1145
tp1146
Rp1147
tp1148
sbsbag3
(g305
g5
(lp1149
F0.9678129989701131
aF0.46708729423564266
aF0.39203668219802223
aF0.36674386813723625
atp1150
Rp1151
(dp1152
g237
g3
(g270
g264
Ntp1153
Rp1154
(dp1155
g274
(g275
(g19
S'\xfa\xf6\xa5\xcd\xb2\xaf\xcd?'
p1156
tp1157
Rp1158
g275
(g19
S'\x18\xa9\xb2\x82\xa8y\xa4\xbe'
p1159
tp1160
Rp1161
tp1162
sbsbag3
(g305
g5
(lp1163
F0.0545348712665511
aF0.3015552283524575
aF0.5942068318296714
aF0.11520323281087974
atp1164
Rp1165
(dp1166
g237
g3
(g270
g264
Ntp1167
Rp1168
(dp1169
g274
(g275
(g19
S'.(\xf9\x11\xea\x08\xb5?'
p1170
tp1171
Rp1172
g275
(g19
S'\xf1\xad\xd899\xa3\x82\xbe'
p1173
tp1174
Rp1175
tp1176
sbsbag3
(g305
g5
(lp1177
F0.9326411964497724
aF0.0048866317564058015
aF0.18141325995626256
aF0.8272103743729368
atp1178
Rp1179
(dp1180
g237
g3
(g270
g264
Ntp1181
Rp1182
(dp1183
g274
g292
sbsbag3
(g305
g5
(lp1184
F0.8300580331888014
aF0.767795125801089
aF0.21380534116477434
aF0.2574127520747659
atp1185
Rp1186
(dp1187
g237
g3
(g270
g264
Ntp1188
Rp1189
(dp1190
g274
(g275
(g19
S'\xf3\xb7\xc3\xd6\x8c\xf0\xcd?'
p1191
tp1192
Rp1193
g275
(g19
S'\xeb\x1f\xbc\xaeM\x84\x91\xbe'
p1194
tp1195
Rp1196
tp1197
sbsbag3
(g305
g5
(lp1198
F0.06109381140256098
aF0.6841701464278206
aF0.6182015337542633
aF0.7063034281452487
atp1199
Rp1200
(dp1201
g237
g3
(g270
g264
Ntp1202
Rp1203
(dp1204
g274
(g275
(g19
S'\xaa\xa9\xb1\x87\x9b\xe7\xb3?'
p1205
tp1206
Rp1207
g275
(g19
S'A5\xb6 \xc9\xf4\x81\xbe'
p1208
tp1209
Rp1210
tp1211
sbsbag3
(g305
g5
(lp1212
F0.46392569589958044
aF0.04069732038600227
aF0.44299128608261595
aF0.09297478119004343
atp1213
Rp1214
(dp1215
g237
g3
(g270
g264
Ntp1216
Rp1217
(dp1218
g274
(g275
(g19
S'\x96\xb0\xb1\x8e\x90Y\xca?'
p1219
tp1220
Rp1221
g275
(g19
S'\x05\x05jVt\x9f\xa0\xbe'
p1222
tp1223
Rp1224
tp1225
sbsbag3
(g305
g5
(lp1226
F0.2863306381660796
aF0.7627126524321017
aF0.09573105729168796
aF0.586937545751889
atp1227
Rp1228
(dp1229
g237
g3
(g270
g264
Ntp1230
Rp1231
(dp1232
g274
(g275
(g19
S'\xd3\xb3%\xfb\xb8\xec\xcf?'
p1233
tp1234
Rp1235
g275
(g19
S'\x01\x13\xee\xb7\xad\x07`\xbe'
p1236
tp1237
Rp1238
tp1239
sbsbag3
(g305
g5
(lp1240
F0.8841425876238089
aF0.4206524451371809
aF0.9253780824938681
aF0.1874723894521385
atp1241
Rp1242
(dp1243
g237
g3
(g270
g264
Ntp1244
Rp1245
(dp1246
g274
(g275
(g19
S'*\xd2Sl\x90\xd6\xa9?'
p1247
tp1248
Rp1249
g275
(g19
S'T\x91l\x07%\x91}\xbe'
p1250
tp1251
Rp1252
tp1253
sbsbag3
(g305
g5
(lp1254
F0.02696660222453695
aF0.16018617018226844
aF0.7664310378666981
aF0.03551835177198459
atp1255
Rp1256
(dp1257
g237
g3
(g270
g264
Ntp1258
Rp1259
(dp1260
g274
(g275
(g19
S'\xbc\x84\xe6 n\xbe\xa6?'
p1261
tp1262
Rp1263
g275
(g19
S'n\xa7\xeej&\x93u\xbe'
p1264
tp1265
Rp1266
tp1267
sbsbag3
(g305
g5
(lp1268
F0.9126428914683761
aF0.0048866317564058015
aF0.1185094057097359
aF0.26115195023978444
atp1269
Rp1270
(dp1271
g237
g3
(g270
g264
Ntp1272
Rp1273
(dp1274
g274
(g275
(g19
S'\x8aGh\x9d\xb2\xff\xcf?'
p1275
tp1276
Rp1277
g275
(g19
S'+V\xb7\xcd:\xd60\xbe'
p1278
tp1279
Rp1280
tp1281
sbsbag3
(g305
g5
(lp1282
F0.6741906865056114
aF0.0048866317564058015
aF0.1185094057097359
aF0.26115195023978444
atp1283
Rp1284
(dp1285
g237
g3
(g270
g264
Ntp1286
Rp1287
(dp1288
g274
(g275
(g19
S'\xbd\x92{\x97 \x00\xd0?'
p1289
tp1290
Rp1291
g275
(g19
S"_\xf4\x9d\xae'q6\xbe"
p1292
tp1293
Rp1294
tp1295
sbsbag3
(g305
g5
(lp1296
F0.9326411964497724
aF0.0048866317564058015
aF0.14718952098253135
aF0.056692280921534
atp1297
Rp1298
(dp1299
g237
g3
(g270
g264
Ntp1300
Rp1301
(dp1302
g274
(g275
(g19
S'g\x87(\xc9\x0c\x00\xd0?'
p1303
tp1304
Rp1305
g275
(g19
S'-\x01!xj\xb18\xbe'
p1306
tp1307
Rp1308
tp1309
sbsbag3
(g305
g5
(lp1310
F0.8075188003610211
aF0.6662420079332031
aF0.18141325995626256
aF0.8272103743729368
atp1311
Rp1312
(dp1313
g237
g3
(g270
g264
Ntp1314
Rp1315
(dp1316
g274
g282
sbsbag3
(g305
g5
(lp1317
F0.9326411964497724
aF0.0048866317564058015
aF0.3765657856577316
aF0.5167126024173341
atp1318
Rp1319
(dp1320
g237
g3
(g270
g264
Ntp1321
Rp1322
(dp1323
g274
(g275
(g19
S'\x92|C\xd3\x8a\x15\xcf?'
p1324
tp1325
Rp1326
g275
(g19
S'\xc3\x84]g\xb4\x9b\xa0\xbe'
p1327
tp1328
Rp1329
tp1330
sbsbag3
(g305
g5
(lp1331
F0.24492900610373192
aF0.4123222762010137
aF0.5221979924357152
aF0.112175088532385
atp1332
Rp1333
(dp1334
g237
g3
(g270
g264
Ntp1335
Rp1336
(dp1337
g274
(g275
(g19
S'\xafs\xb6C\x01:\xc1?'
p1338
tp1339
Rp1340
g275
(g19
S'f\x94&\x1f\xba\xe5\x8d\xbe'
p1341
tp1342
Rp1343
tp1344
sbsbag3
(g305
g5
(lp1345
F0.759620265837516
aF0.08548742028709766
aF0.1185094057097359
aF0.26115195023978444
atp1346
Rp1347
(dp1348
g237
g3
(g270
g264
Ntp1349
Rp1350
(dp1351
g274
(g275
(g19
S'S\xfd\xec\xa0\xa9\xff\xcf?'
p1352
tp1353
Rp1354
g275
(g19
S'\x7fO\x07@Q\xac0\xbe'
p1355
tp1356
Rp1357
tp1358
sbsbag3
(g305
g5
(lp1359
F0.9026141593815445
aF0.42139671018718017
aF0.8480694176907494
aF0.6880537297112636
atp1360
Rp1361
(dp1362
g237
g3
(g270
g264
Ntp1363
Rp1364
(dp1365
g274
(g275
(g19
S'\xbbqy(\xd5\xed\xb0?'
p1366
tp1367
Rp1368
g275
(g19
S'\xe0g\xaf\xb8\x9a\x1d\x86\xbe'
p1369
tp1370
Rp1371
tp1372
sbsbag3
(g305
g5
(lp1373
F0.8591046284622579
aF0.9249243120169346
aF0.4823561590882758
aF0.9790476220529544
atp1374
Rp1375
(dp1376
g237
g3
(g270
g264
Ntp1377
Rp1378
(dp1379
g274
(g275
(g19
S'\xbd{\x87\xb0=,\xca?'
p1380
tp1381
Rp1382
g275
(g19
S'\xf5\x8e}\x96u\xdb\xac\xbe'
p1383
tp1384
Rp1385
tp1386
sbsbag3
(g305
g5
(lp1387
F0.6147326428641446
aF0.7249227069887679
aF0.4202462948833551
aF0.24291838147007827
atp1388
Rp1389
(dp1390
g237
g3
(g270
g264
Ntp1391
Rp1392
(dp1393
g274
(g275
(g19
S'u%\x01\xdd\x9d\xfa\xcb?'
p1394
tp1395
Rp1396
g275
(g19
S'\x8a\x84\xaa?;\x00\xa8\xbe'
p1397
tp1398
Rp1399
tp1400
sbsbag3
(g305
g5
(lp1401
F0.9326411964497724
aF0.0048866317564058015
aF0.10348558285811671
aF0.15723496125603542
atp1402
Rp1403
(dp1404
g237
g3
(g270
g264
Ntp1405
Rp1406
(dp1407
g274
(g275
(g19
S'(\xe3\x1d\xf1\xbf\xff\xcf?'
p1408
tp1409
Rp1410
g275
(g19
S'\xa6\x94\xd6\xaa0 /\xbe'
p1411
tp1412
Rp1413
tp1414
sbsbag3
(g305
g5
(lp1415
F0.8281941278983846
aF0.8018325107150949
aF0.055089605797496555
aF0.047498344620066524
atp1416
Rp1417
(dp1418
g237
g3
(g270
g264
Ntp1419
Rp1420
(dp1421
g274
(g275
(g19
S'eMw\xe7\xe9\xff\xcf?'
p1422
tp1423
Rp1424
g275
(g19
S'\xddg\x17\xfd\xe0\xa9)\xbe'
p1425
tp1426
Rp1427
tp1428
sbsbag3
(g305
g5
(lp1429
F0.8288784570782814
aF0.3511129674911695
aF0.332992582414512
aF0.5224410983875275
atp1430
Rp1431
(dp1432
g237
g3
(g270
g264
Ntp1433
Rp1434
(dp1435
g274
(g275
(g19
S'8v#n\xf5\xa4\xce?'
p1436
tp1437
Rp1438
g275
(g19
S'\x10\x1f\xfejM\xba\x9b\xbe'
p1439
tp1440
Rp1441
tp1442
sbsbag3
(g305
g5
(lp1443
F0.05210829496559999
aF0.20545775700153457
aF0.8454608939962641
aF0.9029505353643071
atp1444
Rp1445
(dp1446
g237
g3
(g270
g264
Ntp1447
Rp1448
(dp1449
g274
(g275
(g19
S'9\xc0\x9asr\x0f\xa3?'
p1450
tp1451
Rp1452
g275
(g19
S'\x17\x01\xf6\xa0\xc2\xeer\xbe'
p1453
tp1454
Rp1455
tp1456
sbsbag3
(g305
g5
(lp1457
F0.20467149741321788
aF0.7471010904178379
aF0.4249448341021197
aF0.4193751135721886
atp1458
Rp1459
(dp1460
g237
g3
(g270
g264
Ntp1461
Rp1462
(dp1463
g274
(g275
(g19
S'\x0f\x0f\x86\xa2G\xf6\xc4?'
p1464
tp1465
Rp1466
g275
(g19
S'&\x82\x93\xfa\xc1\x05\x95\xbe'
p1467
tp1468
Rp1469
tp1470
sbsbag3
(g305
g5
(lp1471
F0.08260637130214188
aF0.08656008110319913
aF0.6932759276912308
aF0.31217576710952977
atp1472
Rp1473
(dp1474
g237
g3
(g270
g264
Ntp1475
Rp1476
(dp1477
g274
(g275
(g19
S'\xa6F\xb2\x85\x8c\xaf\xb0?'
p1478
tp1479
Rp1480
g275
(g19
S'\xb4M\x1a\xb8\x13\xd5\x7f\xbe'
p1481
tp1482
Rp1483
tp1484
sbsbag3
(g305
g5
(lp1485
F0.6216658705489034
aF0.8410205721373958
aF0.18874434188029987
aF0.3430723402297935
atp1486
Rp1487
(dp1488
g237
g3
(g270
g264
Ntp1489
Rp1490
(dp1491
g274
(g275
(g19
S'6\x19\x8e\xe3\xa0\xe7\xcf?'
p1492
tp1493
Rp1494
g275
(g19
S'\xbc\x9d\xa79#\xa2i\xbe'
p1495
tp1496
Rp1497
tp1498
sbsbag3
(g305
g5
(lp1499
F0.8733206442535151
aF0.09989866800291802
aF0.03330775058483204
aF0.06815595144317244
atp1500
Rp1501
(dp1502
g237
g3
(g270
g264
Ntp1503
Rp1504
(dp1505
g274
(g275
(g19
S'\xa5z~\xf2\xca\xff\xcf?'
p1506
tp1507
Rp1508
g275
(g19
S'\xbc\x1c\xfa\xaf\x13\x88$\xbe'
p1509
tp1510
Rp1511
tp1512
sbsbag3
(g305
g5
(lp1513
F0.04886709024154745
aF0.516638250786923
aF0.4073307093029854
aF0.9966542947542724
atp1514
Rp1515
(dp1516
g237
g3
(g270
g264
Ntp1517
Rp1518
(dp1519
g274
(g275
(g19
S'6\xbc\xf5\xea\x04\x8b\xc1?'
p1520
tp1521
Rp1522
g275
(g19
S'x\xc3\xf3\xa1\x8eK\x8f\xbe'
p1523
tp1524
Rp1525
tp1526
sbsbag3
(g305
g5
(lp1527
F0.6741906865056114
aF0.0048866317564058015
aF0.14718952098253135
aF0.15723496125603542
atp1528
Rp1529
(dp1530
g237
g3
(g270
g264
Ntp1531
Rp1532
(dp1533
g274
(g275
(g19
S'\xedm\x06s\xda\xe7\xcf?'
p1534
tp1535
Rp1536
g275
(g19
S'"6=f\x88*`\xbe'
p1537
tp1538
Rp1539
tp1540
sbsbag3
(g305
g5
(lp1541
F0.759620265837516
aF0.08548742028709766
aF0.10348558285811671
aF0.056692280921534
atp1542
Rp1543
(dp1544
g237
g3
(g270
g264
Ntp1545
Rp1546
(dp1547
g274
(g275
(g19
S'3\xc2\x9d\x9c\xb2\xff\xcf?'
p1548
tp1549
Rp1550
g275
(g19
S'\xaf\x9d\x05\xafV\xd5.\xbe'
p1551
tp1552
Rp1553
tp1554
sbsbag3
(g305
g5
(lp1555
F0.8075188003610211
aF0.08548742028709766
aF0.1185094057097359
aF0.26115195023978444
atp1556
Rp1557
(dp1558
g237
g3
(g270
g264
Ntp1559
Rp1560
(dp1561
g274
(g275
(g19
S'v\x14o\x0e\xab\xff\xcf?'
p1562
tp1563
Rp1564
g275
(g19
S'\xcd\x0f\xc6\x178\xc50\xbe'
p1565
tp1566
Rp1567
tp1568
sbsbag3
(g305
g5
(lp1569
F0.759620265837516
aF0.6662420079332031
aF0.18141325995626256
aF0.8272103743729368
atp1570
Rp1571
(dp1572
g237
g3
(g270
g264
Ntp1573
Rp1574
(dp1575
g274
(g275
(g19
S'\xba\x83N\xca;\xfb\xcf?'
p1576
tp1577
Rp1578
g275
(g19
S'Vb\x1cc\x8b\xb7N\xbe'
p1579
tp1580
Rp1581
tp1582
sbsbag3
(g305
g5
(lp1583
F0.6123781846364459
aF0.5585351699732163
aF0.04481858778662828
aF0.25798399114852755
atp1584
Rp1585
(dp1586
g237
g3
(g270
g264
Ntp1587
Rp1588
(dp1589
g274
(g275
(g19
S'\x85\xb8\xa1\xf1\xc9\xff\xcf?'
p1590
tp1591
Rp1592
g275
(g19
S'\xc0c9^\xb4\xbf$\xbe'
p1593
tp1594
Rp1595
tp1596
sbsbag3
(g305
g5
(lp1597
F0.6741906865056114
aF0.0048866317564058015
aF0.1185094057097359
aF0.26115195023978444
atp1598
Rp1599
(dp1600
g237
g3
(g270
g264
Ntp1601
Rp1602
(dp1603
g274
(g275
(g19
S'\xbd\x92{\x97 \x00\xd0?'
p1604
tp1605
Rp1606
g275
(g19
S"_\xf4\x9d\xae'q6\xbe"
p1607
tp1608
Rp1609
tp1610
sbsbag3
(g305
g5
(lp1611
F0.7423042636211706
aF0.7874710937273554
aF0.9103979725566939
aF0.48429768209980784
atp1612
Rp1613
(dp1614
g237
g3
(g270
g264
Ntp1615
Rp1616
(dp1617
g274
(g275
(g19
S'\xc8\xd0\xac\x8e\xfc\xad\xab?'
p1618
tp1619
Rp1620
g275
(g19
S'1\x81\x0cA\xf9\xa4\x80\xbe'
p1621
tp1622
Rp1623
tp1624
sbsbag3
(g305
g5
(lp1625
F0.9123246509014676
aF0.37006913272423614
aF0.06048751508564043
aF0.9542390523775013
atp1626
Rp1627
(dp1628
g237
g3
(g270
g264
Ntp1629
Rp1630
(dp1631
g274
(g275
(g19
S'\xd9\xed\x8dg\r\x00\xd0?'
p1632
tp1633
Rp1634
g275
(g19
S'b\xf4}\x9c\x98\x8a1\xbe'
p1635
tp1636
Rp1637
tp1638
sbsbag3
(g305
g5
(lp1639
F0.2777663871550038
aF0.46462509308829103
aF0.5561696581128754
aF0.8048667087390052
atp1640
Rp1641
(dp1642
g237
g3
(g270
g264
Ntp1643
Rp1644
(dp1645
g274
(g275
(g19
S'\x8fS\xdc\\\xb0Q\xc0?'
p1646
tp1647
Rp1648
g275
(g19
S'jgI\x04e\xb3\x8c\xbe'
p1649
tp1650
Rp1651
tp1652
sbsbag3
(g305
g5
(lp1653
F0.5786594757166159
aF0.70709008059192
aF0.16933365644062848
aF0.164172868286526
atp1654
Rp1655
(dp1656
g237
g3
(g270
g264
Ntp1657
Rp1658
(dp1659
g274
(g275
(g19
S'\xcaFt\x8cF\xe9\xcf?'
p1660
tp1661
Rp1662
g275
(g19
S'E\x07?,\x89Aa\xbe'
p1663
tp1664
Rp1665
tp1666
sbsbag3
(g305
g5
(lp1667
F0.5040607815752843
aF0.24380772106609871
aF0.6253468391622253
aF0.35161456756425424
atp1668
Rp1669
(dp1670
g237
g3
(g270
g264
Ntp1671
Rp1672
(dp1673
g274
(g275
(g19
S'\xd3\x13\x80y\xe1\xe6\xc0?'
p1674
tp1675
Rp1676
g275
(g19
S'Xg`B\x05\xb8\x97\xbe'
p1677
tp1678
Rp1679
tp1680
sbsbag3
(g305
g5
(lp1681
F0.44669896404621534
aF0.725201612316971
aF0.09989994726173657
aF0.4896401918877855
atp1682
Rp1683
(dp1684
g237
g3
(g270
g264
Ntp1685
Rp1686
(dp1687
g274
(g275
(g19
S'\x9d\x99Z(\x1b\x00\xd0?'
p1688
tp1689
Rp1690
g275
(g19
S'x\xb7\xfb}\xab\xdc8\xbe'
p1691
tp1692
Rp1693
tp1694
sbsbag3
(g305
g5
(lp1695
F0.9126428914683761
aF0.0048866317564058015
aF0.1185094057097359
aF0.26115195023978444
atp1696
Rp1697
(dp1698
g237
g3
(g270
g264
Ntp1699
Rp1700
(dp1701
g274
(g275
(g19
S'\x8aGh\x9d\xb2\xff\xcf?'
p1702
tp1703
Rp1704
g275
(g19
S'+V\xb7\xcd:\xd60\xbe'
p1705
tp1706
Rp1707
tp1708
sbsbag3
(g305
g5
(lp1709
F0.5001633263998158
aF0.11559614814090047
aF0.08239537563253307
aF0.9882616715418309
atp1710
Rp1711
(dp1712
g237
g3
(g270
g264
Ntp1713
Rp1714
(dp1715
g274
(g275
(g19
S'p^\xe2\x83\xdf\xff\xcf?'
p1716
tp1717
Rp1718
g275
(g19
S'?3\xfc\x0c\xe2~%\xbe'
p1719
tp1720
Rp1721
tp1722
sbsbag3
(g305
g5
(lp1723
F0.05557919117612997
aF0.48876687179004785
aF0.927158678070028
aF0.8156629515781628
atp1724
Rp1725
(dp1726
g237
g3
(g270
g264
Ntp1727
Rp1728
(dp1729
g274
(g275
(g19
S'\x0e\xa37\xeb\xae\x90\x9d?'
p1730
tp1731
Rp1732
g275
(g19
S'\x88\xbd\xab##\xe6k\xbe'
p1733
tp1734
Rp1735
tp1736
sbsbag3
(g305
g5
(lp1737
F0.5831502878667633
aF0.027691814738822762
aF0.8761258593132277
aF0.8353745317887806
atp1738
Rp1739
(dp1740
g237
g3
(g270
g264
Ntp1741
Rp1742
(dp1743
g274
(g275
(g19
S'\xe8\xfa^\x10m\xb0\xac?'
p1744
tp1745
Rp1746
g275
(g19
S'\x07)qoc!|\xbe'
p1747
tp1748
Rp1749
tp1750
sbsbag3
(g305
g5
(lp1751
F0.3521042097285767
aF0.13663862068626287
aF0.3221878691261928
aF0.6011417972100803
atp1752
Rp1753
(dp1754
g237
g3
(g270
g264
Ntp1755
Rp1756
(dp1757
g274
(g275
(g19
S'\xd6\xb3\x13\xb0\xcc;\xcc?'
p1758
tp1759
Rp1760
g275
(g19
S'\n\xcc\xa67\xecc\x97\xbe'
p1761
tp1762
Rp1763
tp1764
sbsbag3
(g305
g5
(lp1765
F0.5787469716223274
aF0.9064015695178985
aF0.46052758566054564
aF0.17354117872684904
atp1766
Rp1767
(dp1768
g237
g3
(g270
g264
Ntp1769
Rp1770
(dp1771
g274
(g275
(g19
S'\xb8\x13\x10\xd7\x1d\xb4\xc9?'
p1772
tp1773
Rp1774
g275
(g19
S'\x1dq\x88o\xc6\xe6\xa7\xbe'
p1775
tp1776
Rp1777
tp1778
sbsbag3
(g305
g5
(lp1779
F0.05314213459404926
aF0.05371579550827743
aF0.2998859388080317
aF0.7951296464819546
atp1780
Rp1781
(dp1782
g237
g3
(g270
g264
Ntp1783
Rp1784
(dp1785
g274
(g275
(g19
S'\xa9\xc64e\x8f\xe7\xc6?'
p1786
tp1787
Rp1788
g275
(g19
S'\xcdO\x15\xd0\x86\x00\x96\xbe'
p1789
tp1790
Rp1791
tp1792
sbsbag3
(g305
g5
(lp1793
F0.8925928425261341
aF0.46462509308829103
aF0.5561696581128754
aF0.8048667087390052
atp1794
Rp1795
(dp1796
g237
g3
(g270
g264
Ntp1797
Rp1798
(dp1799
g274
(g275
(g19
S'^q\x99\xac\xca\x05\xc7?'
p1800
tp1801
Rp1802
g275
(g19
S'{t:\xefs\xf3\xaa\xbe'
p1803
tp1804
Rp1805
tp1806
sbsbag3
(g305
g5
(lp1807
F0.2777663871550038
aF0.8343684627500405
aF0.0032639606972760804
aF0.24978064174132675
atp1808
Rp1809
(dp1810
g237
g3
(g270
g264
Ntp1811
Rp1812
(dp1813
g274
(g275
(g19
S'M\xb4:P\xc3\xff\xcf?'
p1814
tp1815
Rp1816
g275
(g19
S'\xc1\xdcUZ8\x97$\xbe'
p1817
tp1818
Rp1819
tp1820
sbsbag3
(g305
g5
(lp1821
F0.759620265837516
aF0.6662420079332031
aF0.09989994726173657
aF0.4896401918877855
atp1822
Rp1823
(dp1824
g237
g3
(g270
g264
Ntp1825
Rp1826
(dp1827
g274
(g275
(g19
S'\xad\xa5\x18V\x18\x00\xd0?'
p1828
tp1829
Rp1830
g275
(g19
S')\x03\x8b\x0b\xba]8\xbe'
p1831
tp1832
Rp1833
tp1834
sbsbag3
(g305
g5
(lp1835
F0.44669896404621534
aF0.725201612316971
aF0.18141325995626256
aF0.8272103743729368
atp1836
Rp1837
(dp1838
g237
g3
(g270
g264
Ntp1839
Rp1840
(dp1841
g274
(g275
(g19
S'\xfa\x82r\x80\x95\xb8\xcd?'
p1842
tp1843
Rp1844
g275
(g19
S'u8\x934=\x1c\x93\xbe'
p1845
tp1846
Rp1847
tp1848
sbsbag3
(g305
g5
(lp1849
F0.40139706642725803
aF0.0048866317564058015
aF0.1185094057097359
aF0.15723496125603542
atp1850
Rp1851
(dp1852
g237
g3
(g270
g264
Ntp1853
Rp1854
(dp1855
g274
(g275
(g19
S'\xf6\x8aj\x9e\xae\xed\xcf?'
p1856
tp1857
Rp1858
g275
(g19
S'Y.\n&{\xfa`\xbe'
p1859
tp1860
Rp1861
tp1862
sbsbag3
(g305
g5
(lp1863
F0.6847542028125223
aF0.48222135785579257
aF0.09910023225440756
aF0.004774250647024969
atp1864
Rp1865
(dp1866
g237
g3
(g270
g264
Ntp1867
Rp1868
(dp1869
g274
(g275
(g19
S'\x95\x0b$\xda\xfc\xff\xcf?'
p1870
tp1871
Rp1872
g275
(g19
S'\rMp?Z\xdc6\xbe'
p1873
tp1874
Rp1875
tp1876
sbsbag3
(g305
g5
(lp1877
F0.9326411964497724
aF0.0048866317564058015
aF0.10348558285811671
aF0.26115195023978444
atp1878
Rp1879
(dp1880
g237
g3
(g270
g264
Ntp1881
Rp1882
(dp1883
g274
(g275
(g19
S'&\xe3\x1d\xf1\xbf\xff\xcf?'
p1884
tp1885
Rp1886
g275
(g19
S'\xa6\x94\xd6\xaa0 /\xbe'
p1887
tp1888
Rp1889
tp1890
sbsbag3
(g305
g5
(lp1891
F0.9126428914683761
aF0.0048866317564058015
aF0.1185094057097359
aF0.8272103743729368
atp1892
Rp1893
(dp1894
g237
g3
(g270
g264
Ntp1895
Rp1896
(dp1897
g274
(g275
(g19
S'\x8aGh\x9d\xb2\xff\xcf?'
p1898
tp1899
Rp1900
g275
(g19
S'+V\xb7\xcd:\xd60\xbe'
p1901
tp1902
Rp1903
tp1904
sbsbag3
(g305
g5
(lp1905
F0.48107664784756
aF0.9013276875434937
aF0.9146179280736507
aF0.8862732279599688
atp1906
Rp1907
(dp1908
g237
g3
(g270
g264
Ntp1909
Rp1910
(dp1911
g274
(g275
(g19
S'\x85\xe0m \x16\xad\xaa?'
p1912
tp1913
Rp1914
g275
(g19
S'\x1d\xdaT\x0c\xb9V~\xbe'
p1915
tp1916
Rp1917
tp1918
sbsbag3
(g305
g5
(lp1919
F0.9326411964497724
aF0.0048866317564058015
aF0.18141325995626256
aF0.26115195023978444
atp1920
Rp1921
(dp1922
g237
g3
(g270
g264
Ntp1923
Rp1924
(dp1925
g274
g302
sbsbag3
(g305
g5
(lp1926
F0.3330227317960055
aF0.6015076328249528
aF0.5442954839272607
aF0.2796826034137536
atp1927
Rp1928
(dp1929
g237
g3
(g270
g264
Ntp1930
Rp1931
(dp1932
g274
(g275
(g19
S'\xb2\xde%\xc2-\x94\xc1?'
p1933
tp1934
Rp1935
g275
(g19
S'0\\\\9\xac\xd0\x8e\xbe'
p1936
tp1937
Rp1938
tp1939
sbsbag3
(g305
g5
(lp1940
F0.040085201069099186
aF0.16454911999349664
aF0.03656878341036285
aF0.7248273860055281
atp1941
Rp1942
(dp1943
g237
g3
(g270
g264
Ntp1944
Rp1945
(dp1946
g274
(g275
(g19
S'\x16\xbeE\xb0\x0f\x8a\xcc?'
p1947
tp1948
Rp1949
g275
(g19
S'R\xa1\xc4VS\xaf\x92\xbe'
p1950
tp1951
Rp1952
tp1953
sbsbag3
(g305
g5
(lp1954
F0.3169542422416819
aF0.2359302872316117
aF0.10209147072178715
aF0.7388432898246529
atp1955
Rp1956
(dp1957
g237
g3
(g270
g264
Ntp1958
Rp1959
(dp1960
g274
(g275
(g19
S'\x1b\xcd\xfa\xeeE\xf0\xcf?'
p1961
tp1962
Rp1963
g275
(g19
S'\x0e\xfd\xc3\x1a\x99\x1fb\xbe'
p1964
tp1965
Rp1966
tp1967
sbsbag3
(g305
g5
(lp1968
F0.025421956236856835
aF0.525736319578708
aF0.9655057388894615
aF0.4644233183870684
atp1969
Rp1970
(dp1971
g237
g3
(g270
g264
Ntp1972
Rp1973
(dp1974
g274
(g275
(g19
S'*\x00\xf9\xd9.z\x97?'
p1975
tp1976
Rp1977
g275
(g19
S'oX\x92\xaf\xaezg\xbe'
p1978
tp1979
Rp1980
tp1981
sbsbag3
(g305
g5
(lp1982
F0.14253062266940386
aF0.699629240067755
aF0.6887264009721976
aF0.3516748628953814
atp1983
Rp1984
(dp1985
g237
g3
(g270
g264
Ntp1986
Rp1987
(dp1988
g274
(g275
(g19
S'V\x9a:N\xe8\xef\xb2?'
p1989
tp1990
Rp1991
g275
(g19
S'\x87\xc8\xbfJWP\x81\xbe'
p1992
tp1993
Rp1994
tp1995
sbsbag3
(g305
g5
(lp1996
F0.5100686819874872
aF0.37483231599416056
aF0.2732552838177569
aF0.8512425338226021
atp1997
Rp1998
(dp1999
g237
g3
(g270
g264
Ntp2000
Rp2001
(dp2002
g274
(g275
(g19
S'\x16\x92\xcf\xaez\xf8\xcd?'
p2003
tp2004
Rp2005
g275
(g19
S'\x81u\x89\x13\xbe\xe5\x94\xbe'
p2006
tp2007
Rp2008
tp2009
sbsbag3
(g305
g5
(lp2010
F0.6123781846364459
aF0.5585351699732163
aF0.18141325995626256
aF0.8272103743729368
atp2011
Rp2012
(dp2013
g237
g3
(g270
g264
Ntp2014
Rp2015
(dp2016
g274
(g275
(g19
S'\xdbH\xa2\xcc\xc2\xd7\xcf?'
p2017
tp2018
Rp2019
g275
(g19
S'{~\xab\xa0\x95\x80g\xbe'
p2020
tp2021
Rp2022
tp2023
sbsbag3
(g305
g5
(lp2024
F0.8075188003610211
aF0.6662420079332031
aF0.04481858778662828
aF0.25798399114852755
atp2025
Rp2026
(dp2027
g237
g3
(g270
g264
Ntp2028
Rp2029
(dp2030
g274
(g275
(g19
S'Bn\xac\x05\xc8\xff\xcf?'
p2031
tp2032
Rp2033
g275
(g19
S'\xd2u\xaf\xae\xc9s$\xbe'
p2034
tp2035
Rp2036
tp2037
sbsbag3
(g305
g5
(lp2038
F0.0522570216705196
aF0.4924874540860833
aF0.7987526109438454
aF0.030328352436162276
atp2039
Rp2040
(dp2041
g237
g3
(g270
g264
Ntp2042
Rp2043
(dp2044
g274
(g275
(g19
S'\xb4`\xdee=,\xa6?'
p2045
tp2046
Rp2047
g275
(g19
S'\x08e\xa2\xdfxKu\xbe'
p2048
tp2049
Rp2050
tp2051
sbsbag3
(g305
g5
(lp2052
F0.9326411964497724
aF0.0048866317564058015
aF0.09910023225440756
aF0.004774250647024969
atp2053
Rp2054
(dp2055
g237
g3
(g270
g264
Ntp2056
Rp2057
(dp2058
g274
(g275
(g19
S'\xf1z:\xd0\x10\x00\xd0?'
p2059
tp2060
Rp2061
g275
(g19
S'\x03\xa1=e\x85\xa16\xbe'
p2062
tp2063
Rp2064
tp2065
sbsbag3
(g305
g5
(lp2066
F0.6847542028125223
aF0.48222135785579257
aF0.1185094057097359
aF0.26115195023978444
atp2067
Rp2068
(dp2069
g237
g3
(g270
g264
Ntp2070
Rp2071
(dp2072
g274
(g275
(g19
S' \xaf\xa8s\x96\xff\xcf?'
p2073
tp2074
Rp2075
g275
(g19
S'\xc5&%6\xb9T0\xbe'
p2076
tp2077
Rp2078
tp2079
sbsbag3
(g305
g5
(lp2080
F0.4421402715923517
aF0.0048866317564058015
aF0.1185094057097359
aF0.8272103743729368
atp2081
Rp2082
(dp2083
g237
g3
(g270
g264
Ntp2084
Rp2085
(dp2086
g274
(g275
(g19
S'\xed\xa9\xaa\xdf\x0c\xfa\xcf?'
p2087
tp2088
Rp2089
g275
(g19
S'9\x1e\xd6N\xd4\xd8S\xbe'
p2090
tp2091
Rp2092
tp2093
sbsbag3
(g305
g5
(lp2094
F0.9126428914683761
aF0.4703755846334704
aF0.14718952098253135
aF0.056692280921534
atp2095
Rp2096
(dp2097
g237
g3
(g270
g264
Ntp2098
Rp2099
(dp2100
g274
(g275
(g19
S'fD*\xd5\x06\x00\xd0?'
p2101
tp2102
Rp2103
g275
(g19
S'\x8a5C\xb6\x07\xb78\xbe'
p2104
tp2105
Rp2106
tp2107
sbsbag3
(g305
g5
(lp2108
F0.3322727469659683
aF0.7307137575744816
aF0.7929003219230235
aF0.825873474740841
atp2109
Rp2110
(dp2111
g237
g3
(g270
g264
Ntp2112
Rp2113
(dp2114
g274
(g275
(g19
S'\xaa\xe4\xa6\xa3\xcb\x9a\xb1?'
p2115
tp2116
Rp2117
g275
(g19
S'J6`\x01a\x82\x81\xbe'
p2118
tp2119
Rp2120
tp2121
sbsbag3
(g305
g5
(lp2122
F0.7848407490190191
aF0.4922284390376199
aF0.505023778422268
aF0.6084914643647052
atp2123
Rp2124
(dp2125
g237
g3
(g270
g264
Ntp2126
Rp2127
(dp2128
g274
(g275
(g19
S'n\xccx\xff3\xab\xc9?'
p2129
tp2130
Rp2131
g275
(g19
S'\xf7F\xbc\xff!\xfe\xac\xbe'
p2132
tp2133
Rp2134
tp2135
sbsbag3
(g305
g5
(lp2136
F0.7425464889952035
aF0.0030874880596700738
aF0.20784205919218812
aF0.5172737213763393
atp2137
Rp2138
(dp2139
g237
g3
(g270
g264
Ntp2140
Rp2141
(dp2142
g274
(g275
(g19
S'k\x8aL\x98\xa5\xf3\xcd?'
p2143
tp2144
Rp2145
g275
(g19
S'\\]\x85\x97_\xaa\x90\xbe'
p2146
tp2147
Rp2148
tp2149
sbsbag3
(g305
g5
(lp2150
F0.5344207605900215
aF0.9027335950173857
aF0.7131804624585729
aF0.7990139528926914
atp2151
Rp2152
(dp2153
g237
g3
(g270
g264
Ntp2154
Rp2155
(dp2156
g274
(g275
(g19
S'\xa8B\x9eGrh\xb9?'
p2157
tp2158
Rp2159
g275
(g19
S'\x0bTPU$]\x93\xbe'
p2160
tp2161
Rp2162
tp2163
sbsbag3
(g305
g5
(lp2164
F0.4941674129935629
aF0.877701113944329
aF0.6506303481182608
aF0.37252841058823094
atp2165
Rp2166
(dp2167
g237
g3
(g270
g264
Ntp2168
Rp2169
(dp2170
g274
(g275
(g19
S';\xa3\x9b\xae4\xa0\xbd?'
p2171
tp2172
Rp2173
g275
(g19
S'\x9e\xf6\xc8\xac\x01\xb5\x94\xbe'
p2174
tp2175
Rp2176
tp2177
sbsbag3
(g305
g5
(lp2178
F0.23051415162755196
aF0.28834735206611617
aF0.6087110175591279
aF0.5057075198123316
atp2179
Rp2180
(dp2181
g237
g3
(g270
g264
Ntp2182
Rp2183
(dp2184
g274
(g275
(g19
S'\xcdB\xf8\x9e\x91\xe6\xba?'
p2185
tp2186
Rp2187
g275
(g19
S'\xa0\xbb\xbd\xed\xa3\x13\x88\xbe'
p2188
tp2189
Rp2190
tp2191
sbsbag3
(g305
g5
(lp2192
F0.7333394617858723
aF0.13473640258717934
aF0.7901738198637295
aF0.7119187476778973
atp2193
Rp2194
(dp2195
g237
g3
(g270
g264
Ntp2196
Rp2197
(dp2198
g274
(g275
(g19
S'\x85\xf6iZD\xcc\xb3?'
p2199
tp2200
Rp2201
g275
(g19
S'\xa5\x06\xd6@\t\xce\x88\xbe'
p2202
tp2203
Rp2204
tp2205
sbsbag3
(g305
g5
(lp2206
F0.25746722293831936
aF0.02438704580764728
aF0.16114063069162166
aF0.8033709337013408
atp2207
Rp2208
(dp2209
g237
g3
(g270
g264
Ntp2210
Rp2211
(dp2212
g274
(g275
(g19
S'\x93\xc1JF[,\xcc?'
p2213
tp2214
Rp2215
g275
(g19
S'\xaeFi\x1a\xa6B\x91\xbe'
p2216
tp2217
Rp2218
tp2219
sbsbag3
(g305
g5
(lp2220
F0.9126428914683761
aF0.0048866317564058015
aF0.1185094057097359
aF0.8272103743729368
atp2221
Rp2222
(dp2223
g237
g3
(g270
g264
Ntp2224
Rp2225
(dp2226
g274
(g275
(g19
S'\x88Gh\x9d\xb2\xff\xcf?'
p2227
tp2228
Rp2229
g275
(g19
S'*V\xb7\xcd:\xd60\xbe'
p2230
tp2231
Rp2232
tp2233
sbsbag3
(g305
g5
(lp2234
F0.4421402715923517
aF0.0048866317564058015
aF0.1185094057097359
aF0.897336175446148
atp2235
Rp2236
(dp2237
g237
g3
(g270
g264
Ntp2238
Rp2239
(dp2240
g274
(g275
(g19
S'\xed\xa9\xaa\xdf\x0c\xfa\xcf?'
p2241
tp2242
Rp2243
g275
(g19
S'9\x1e\xd6N\xd4\xd8S\xbe'
p2244
tp2245
Rp2246
tp2247
sbsbag3
(g305
g5
(lp2248
F0.9326411964497724
aF0.0048866317564058015
aF0.14718952098253135
aF0.056692280921534
atp2249
Rp2250
(dp2251
g237
g3
(g270
g264
Ntp2252
Rp2253
(dp2254
g274
(g275
(g19
S'g\x87(\xc9\x0c\x00\xd0?'
p2255
tp2256
Rp2257
g275
(g19
S'+\x01!xj\xb18\xbe'
p2258
tp2259
Rp2260
tp2261
sbsbag3
(g305
g5
(lp2262
F0.44669896404621534
aF0.725201612316971
aF0.09989994726173657
aF0.7494881799360246
atp2263
Rp2264
(dp2265
g237
g3
(g270
g264
Ntp2266
Rp2267
(dp2268
g274
(g275
(g19
S'\x9e\x99Z(\x1b\x00\xd0?'
p2269
tp2270
Rp2271
g275
(g19
S'w\xb7\xfb}\xab\xdc8\xbe'
p2272
tp2273
Rp2274
tp2275
sbsbag3
(g305
g5
(lp2276
F0.9776050658086548
aF0.9224346500624568
aF0.052812173937098694
aF0.4896401918877855
atp2277
Rp2278
(dp2279
g237
g3
(g270
g264
Ntp2280
Rp2281
(dp2282
g274
(g275
(g19
S'\n\xe3b\x07\xd6\xff\xcf?'
p2283
tp2284
Rp2285
g275
(g19
S'\x04\xd3\xfc\x8d\xc1\x9c%\xbe'
p2286
tp2287
Rp2288
tp2289
sbsbag3
(g305
g5
(lp2290
F0.9326411964497724
aF0.0048866317564058015
aF0.04481858778662828
aF0.25798399114852755
atp2291
Rp2292
(dp2293
g237
g3
(g270
g264
Ntp2294
Rp2295
(dp2296
g274
(g275
(g19
S'\xd3i~v\xd1\xff\xcf?'
p2297
tp2298
Rp2299
g275
(g19
S'\x90FF\x96\x07\x81$\xbe'
p2300
tp2301
Rp2302
tp2303
sbsbag3
(g305
g5
(lp2304
F0.6123781846364459
aF0.5585351699732163
aF0.10348558285811671
aF0.26115195023978444
atp2305
Rp2306
(dp2307
g237
g3
(g270
g264
Ntp2308
Rp2309
(dp2310
g274
(g275
(g19
S'\xf5\x03/\x83\xab\xff\xcf?'
p2311
tp2312
Rp2313
g275
(g19
S'\x17j\xb6j6\x8c.\xbe'
p2314
tp2315
Rp2316
tp2317
sbsbag3
(g305
g5
(lp2318
F0.927328446643077
aF0.08752701195295565
aF0.9786621594262017
aF0.8492952328584381
atp2319
Rp2320
(dp2321
g237
g3
(g270
g264
Ntp2322
Rp2323
(dp2324
g274
(g275
(g19
S'|-2\xc4\x84\xc6\xa4?'
p2325
tp2326
Rp2327
g275
(g19
S'\\\xa1Ft@~s\xbe'
p2328
tp2329
Rp2330
tp2331
sbsbag3
(g305
g5
(lp2332
F0.22719795370148765
aF0.16847547988273304
aF0.12014708145815112
aF0.8616734867076717
atp2333
Rp2334
(dp2335
g237
g3
(g270
g264
Ntp2336
Rp2337
(dp2338
g274
(g275
(g19
S'h$\xea\x08o\x1a\xcd?'
p2339
tp2340
Rp2341
g275
(g19
S'm\xa2&r^n\x90\xbe'
p2342
tp2343
Rp2344
tp2345
sbsbag3
(g305
g5
(lp2346
F0.5585302580941299
aF0.9296808419921171
aF0.11115335484766053
aF0.8169588731963093
atp2347
Rp2348
(dp2349
g237
g3
(g270
g264
Ntp2350
Rp2351
(dp2352
g274
(g275
(g19
S'U\x81E\xa9\xae\xff\xcf?'
p2353
tp2354
Rp2355
g275
(g19
S'\xc9\xbepP\n{0\xbe'
p2356
tp2357
Rp2358
tp2359
sbsbag3
(g305
g5
(lp2360
F0.3437521305137976
aF0.07085993326481355
aF0.2922253570719078
aF0.915269836673672
atp2361
Rp2362
(dp2363
g237
g3
(g270
g264
Ntp2364
Rp2365
(dp2366
g274
(g275
(g19
S'\x92i\xb6\xfc\xfb\xf9\xcc?'
p2367
tp2368
Rp2369
g275
(g19
S'\xbd{x\x80\xcb@\x94\xbe'
p2370
tp2371
Rp2372
tp2373
sbsbag3
(g305
g5
(lp2374
F0.7486125804651655
aF0.8307549493481678
aF0.05096266416067785
aF0.19403184955405617
atp2375
Rp2376
(dp2377
g237
g3
(g270
g264
Ntp2378
Rp2379
(dp2380
g274
(g275
(g19
S'2\x92V2\xea\xff\xcf?'
p2381
tp2382
Rp2383
g275
(g19
S'\xca\xa2\xbcM!](\xbe'
p2384
tp2385
Rp2386
tp2387
sbsbag3
(g305
g5
(lp2388
F0.9126428914683761
aF0.5731797192246801
aF0.1185094057097359
aF0.26115195023978444
atp2389
Rp2390
(dp2391
g237
g3
(g270
g264
Ntp2392
Rp2393
(dp2394
g274
(g275
(g19
S'\xca\x88\x06\x1f\xa8\xff\xcf?'
p2395
tp2396
Rp2397
g275
(g19
S'\x95\xbbW* \xd90\xbe'
p2398
tp2399
Rp2400
tp2401
sbsbas.