(dp0
S'generation'
p1
I7
sS'logbook'
p2
ccopy_reg
_reconstructor
p3
(cdeap.tools.support
Logbook
p4
c__builtin__
list
p5
(lp6
(dp7
S'std'
p8
cnumpy.core.multiarray
_reconstruct
p9
(cnumpy
ndarray
p10
(I0
tp11
S'b'
p12
tp13
Rp14
(I1
(I2
tp15
cnumpy
dtype
p16
(S'f8'
p17
I0
I1
tp18
Rp19
(I3
S'<'
p20
NNNI-1
I-1
I0
tp21
bI00
S'\xb9\xf5U9\x8d.\xb3?R\xc7"]\x06\xa6h?'
p22
tp23
bsS'evals'
p24
I20
sS'min'
p25
g9
(g10
(I0
tp26
g12
tp27
Rp28
(I1
(I2
tp29
g19
I00
S'\xf8\x94H\x8b\xe5K\xa1?hR\x1e\x08\xbf\x1fO?'
p30
tp31
bsS'max'
p32
g9
(g10
(I0
tp33
g12
tp34
Rp35
(I1
(I2
tp36
g19
I00
S'\xff\xda\xc3\x02\xf4\x9a\xd4?\xbe\x81\xbc\xe6\xf2\x9a\x88?'
p37
tp38
bsS'avg'
p39
g9
(g10
(I0
tp40
g12
tp41
Rp42
(I1
(I2
tp43
g19
I00
S'-\xb2\x90m \xf4\xc6?$Y\xc8\xc7\xc5^v?'
p44
tp45
bsS'gen'
p46
I0
sa(dp47
g8
g9
(g10
(I0
tp48
g12
tp49
Rp50
(I1
(I2
tp51
g19
I00
S'X\xbc\xa7v\xfa`\xb4?C\x95\xd1qB\xfeh?'
p52
tp53
bsg24
I16
sg25
g9
(g10
(I0
tp54
g12
tp55
Rp56
(I1
(I2
tp57
g19
I00
S'\xf8\x94H\x8b\xe5K\xa1?hR\x1e\x08\xbf\x1fO?'
p58
tp59
bsg32
g9
(g10
(I0
tp60
g12
tp61
Rp62
(I1
(I2
tp63
g19
I00
S'::\x9b\xce\xab\xef\xd4?\xbe\x81\xbc\xe6\xf2\x9a\x88?'
p64
tp65
bsg39
g9
(g10
(I0
tp66
g12
tp67
Rp68
(I1
(I2
tp69
g19
I00
S'\xe8=\xf6E\xbf\x8d\xc7?U\xf3s\xe7\\\xc2u?'
p70
tp71
bsg46
I1
sa(dp72
g8
g9
(g10
(I0
tp73
g12
tp74
Rp75
(I1
(I2
tp76
g19
I00
S'5\xbd\xf11\x8f\x99\xb4?[ }\x9e\xac\x1cv?'
p77
tp78
bsg24
I15
sg25
g9
(g10
(I0
tp79
g12
tp80
Rp81
(I1
(I2
tp82
g19
I00
S'\xf8\x94H\x8b\xe5K\xa1?hR\x1e\x08\xbf\x1fO?'
p83
tp84
bsg32
g9
(g10
(I0
tp85
g12
tp86
Rp87
(I1
(I2
tp88
g19
I00
S'::\x9b\xce\xab\xef\xd4?\x8ewc?\x81\x83\xa4?'
p89
tp90
bsg39
g9
(g10
(I0
tp91
g12
tp92
Rp93
(I1
(I2
tp94
g19
I00
S'>\xb8\xb7Q\xef\r\xc8?~j\x14k\x02\xaaw?'
p95
tp96
bsg46
I2
sa(dp97
g8
g9
(g10
(I0
tp98
g12
tp99
Rp100
(I1
(I2
tp101
g19
I00
S'uG\xb2\xce\xd8"\xb5?\xcc~J\x0cD\xb3v?'
p102
tp103
bsg24
I13
sg25
g9
(g10
(I0
tp104
g12
tp105
Rp106
(I1
(I2
tp107
g19
I00
S'\xf8\x94H\x8b\xe5K\xa1?\x9e\xfd\xa5\x8f\x8c]B?'
p108
tp109
bsg32
g9
(g10
(I0
tp110
g12
tp111
Rp112
(I1
(I2
tp113
g19
I00
S'::\x9b\xce\xab\xef\xd4?\x8ewc?\x81\x83\xa4?'
p114
tp115
bsg39
g9
(g10
(I0
tp116
g12
tp117
Rp118
(I1
(I2
tp119
g19
I00
S'p\xd6\xdd\x9f\x7f\x84\xc8?(\x19bU\xc4\xe6x?'
p120
tp121
bsg46
I3
sa(dp122
g8
g9
(g10
(I0
tp123
g12
tp124
Rp125
(I1
(I2
tp126
g19
I00
S'\xd2#l\xd8\xfb\x85\xb4?\x88|&\xda\xa2cv?'
p127
tp128
bsg24
I14
sg25
g9
(g10
(I0
tp129
g12
tp130
Rp131
(I1
(I2
tp132
g19
I00
S'\xf8\x94H\x8b\xe5K\xa1?\x9e\xfd\xa5\x8f\x8c]B?'
p133
tp134
bsg32
g9
(g10
(I0
tp135
g12
tp136
Rp137
(I1
(I2
tp138
g19
I00
S'::\x9b\xce\xab\xef\xd4?\x8ewc?\x81\x83\xa4?'
p139
tp140
bsg39
g9
(g10
(I0
tp141
g12
tp142
Rp143
(I1
(I2
tp144
g19
I00
S'e\xd6\x02\xda\xb61\xc9?\x01t\x85\xe2\x1e\xbex?'
p145
tp146
bsg46
I4
sa(dp147
g8
g9
(g10
(I0
tp148
g12
tp149
Rp150
(I1
(I2
tp151
g19
I00
S'\x08 ?<:\x96\xb4?\xb4\xfb\xe4\xcdUyu?'
p152
tp153
bsg24
I15
sg25
g9
(g10
(I0
tp154
g12
tp155
Rp156
(I1
(I2
tp157
g19
I00
S'\xf8\x94H\x8b\xe5K\xa1?\x9e\xfd\xa5\x8f\x8c]B?'
p158
tp159
bsg32
g9
(g10
(I0
tp160
g12
tp161
Rp162
(I1
(I2
tp163
g19
I00
S'::\x9b\xce\xab\xef\xd4?\x8ewc?\x81\x83\xa4?'
p164
tp165
bsg39
g9
(g10
(I0
tp166
g12
tp167
Rp168
(I1
(I2
tp169
g19
I00
S'6\x82wA\xe1q\xc9?\xb4\xffk\x8cx\xc9w?'
p170
tp171
bsg46
I5
sa(dp172
g8
g9
(g10
(I0
tp173
g12
tp174
Rp175
(I1
(I2
tp176
g19
I00
S'\xfc\xce\xe7\xd4C\xd1\xb3?\x07\xba\x85{\x89\xecu?'
p177
tp178
bsg24
I20
sg25
g9
(g10
(I0
tp179
g12
tp180
Rp181
(I1
(I2
tp182
g19
I00
S'\xf8\x94H\x8b\xe5K\xa1?\x9e\xfd\xa5\x8f\x8c]B?'
p183
tp184
bsg32
g9
(g10
(I0
tp185
g12
tp186
Rp187
(I1
(I2
tp188
g19
I00
S'::\x9b\xce\xab\xef\xd4?\x8ewc?\x81\x83\xa4?'
p189
tp190
bsg39
g9
(g10
(I0
tp191
g12
tp192
Rp193
(I1
(I2
tp194
g19
I00
S'%\x86C_\x86\xec\xc9?\xf8T?\x983\xddx?'
p195
tp196
bsg46
I6
sa(dp197
g8
g9
(g10
(I0
tp198
g12
tp199
Rp200
(I1
(I2
tp201
g19
I00
S'\xf3\x96k\xcf@\xe2\xb3?\t85\xb7j;u?'
p202
tp203
bsg24
I16
sg25
g9
(g10
(I0
tp204
g12
tp205
Rp206
(I1
(I2
tp207
g19
I00
S'\xf8\x94H\x8b\xe5K\xa1?\x9e\xfd\xa5\x8f\x8c]B?'
p208
tp209
bsg32
g9
(g10
(I0
tp210
g12
tp211
Rp212
(I1
(I2
tp213
g19
I00
S'::\x9b\xce\xab\xef\xd4?\x8ewc?\x81\x83\xa4?'
p214
tp215
bsg39
g9
(g10
(I0
tp216
g12
tp217
Rp218
(I1
(I2
tp219
g19
I00
S'\xdfm\xaad\x04r\xca?{\x92\x93\xdd\x15Py?'
p220
tp221
bsg46
I7
satp222
Rp223
(dp224
S'log_header'
p225
I01
sS'header'
p226
(S'gen'
p227
S'evals'
p228
S'fitness'
p229
tp230
sS'columns_len'
p231
NsS'buffindex'
p232
I0
sS'chapters'
p233
ccollections
defaultdict
p234
(g4
tp235
Rp236
S'fitness'
p237
g3
(g4
g5
(lp238
tp239
Rp240
(dp241
g225
I01
sg226
(g39
S'max'
p242
S'min'
p243
S'std'
p244
tp245
sg231
Nsg232
I0
sg233
g234
(g4
tp246
Rp247
sbssbsS'rndstate'
p248
(S'MT19937'
p249
g9
(g10
(I0
tp250
g12
tp251
Rp252
(I1
(I624
tp253
g16
(S'u4'
p254
I0
I1
tp255
Rp256
(I3
S'<'
p257
NNNI-1
I-1
I0
tp258
bI00
S'\x9d?\xc9.\xff\xde\x81\xaf\x92\x15\xa2\xbag\xa5*/\x0c\x8c\x1f\x9a-a\xf88\xf0)\xf1\xa7\x82\xbcS\xef\x1f\x91zE\x82R\xc5S\xf8\xe2\x17\xc8\x88\xab\x0f\r\x7f\x8ewO\xafO\xa7M\x059\xbf\xa2O\xc6`\xf6\x91\xde\xdf\xbd\xddb\xc2\xcam\t\x83.\xb0n\xafl\x02\xfc\xb3T\xc4?\xe5\x8a\xdf\x08M\xc4y!\\\xd7\xb2FH\x1a5\x8cA\x9de\x1cH/H\xfc\x963K\xa3T\xd6\x95\xcd\xc0sP\xef8\xdc\xe8L[Or\xb9D\xdbz\xb9a\xbd\xd7\xfaG\xdc\xcb\t\xbe\x94s|\xd5..\x81Bmo\xfcm\xf7U\x1a\xb8\x17evZ/u\xf8G\r\n\x84\x18\xeb{\xa5\xd9P\xbdD\x95\xd5,\x98\xf6\xa5\x9b&b?Q!\xaa\xff\xfe|\x98qI\xcf\x813\x93\xdddPK\x9dX\xd7\x8a\x89"\x8b\xd1U\xe2\xc9\x86\xed\xb6\x1au\xef\x01\xbd[\x0b\xaf\x98\xf1\xf2BAx*\xdc\x11\xfe\t\xb9A7\x8b\xb6/\xff\x14\xfd\xa6\xdd\xa9PvEI\x8et\xc7^\x15\xae\xeb\x06@\xc8\xa6\x96N\xcb\x90\xc4\xc6\xe1\x8e+\xe6\x08\xa1\xa2\x8a\x9d\xd8(0\xdaM\x8b\x8e\xc1\xe5t\xc2Z\xbd\n\xe4f\xb4S\x90\xd4$D\xab/\x10\'\xf5\xcb\xf4t\xd9O\x8bF~\x99\xe94\xe8\xb4&\x9d\x8bz\xc3\x97B\nv#S]\x1bK{\x85\x05\xec\xa8\x06\x94:\xba\xc7\xa3\xc8\xae\x1d\x9cI\xb37k\xdb6|\xa3\xb3\xd7q?3\xea+\x84\xdf\xbe\x8a \x92+\xfa"\xf4 \x8a\x8f|\xb7\xa9\x1f\xbf\xd0W\xf7\xdb\xc7{\x86qS\xab\xb0&\xa7\xd4\xbfzQ\x80\xd5?\x8dU\x1a\xf9e\xa3\xf9\x11\x92\x83\xeb\x04&\x82z#\x12\xb3\x89r`\xc6\xf1\xcb\xb9}\x1f\xeaC\x15<\xe3\xea<+\xb2\xe0\xdf\x87#G\xaaQ\x1f?\xfcF\x9a(\xcfA\x0b\x90\xfc\xb5\xbf\x83\xf5/\xcc\x8f\xbc\xe0U\xfc\x12-;\xb3O\xd6\xfb\xd2\xaa!\xac\x89*\xc3H\xa6T\x10\xef\x02\xb0NT\xe4\xf0\x98\x8d\xc1\xd7\n\x1e\xe9<\x14\xb8Y\xa87D{-\xc9t\x91PX\x80\xed@\xb9\xce\xdb\xc7\x96\xeb\x1eT\x9c\xb8\x85\xdb\xa2\xbbs>_C\x82\x88\x01$|R\xc3\x1am\xdeS3x\x0b\xfb\xa0\x8bkTb\x11B\x1b\xfa\xf3\xa1/q\x13;\xd6\x0fc\xdb\xfa\xdd\x94\x80\xbbG\xe1a\x8aml\xe5\xec\xd43f\xc3\x02>\xeb\xa6\xd2\xf5>\x1e\xfa\xe4,v\x86\xf3Pg\xd9\r\xc3+\xa8\x1d\xd4\xea\xf8\x80\xf9\x03\xa0\xa6P\xe7\xe5\xd2c\xe5lJ\xcd\xd7-\xb6nB\x04u+*\xcd\x05\xdb\x87W]\xdaz\x03\x03YOp\xd6\xc4n\x9eT\x1fh\xa8$\xe4\xb0D\xb0\x80\xe5\x80\xd0\x86\x89\xd4;\r\xe8\xd2\x16\x90\x19\x03y\x9d|<\xbddvk\xb5\xaf3\xbd`C7\xb1\xe1\xf5\xd6\xec\x95-\xb0\xdew\xd2\xe2L\x8e\xd3\xb7\xeb\x05\xa0\xd8\xe5\xeb\xe1\x8d\xe4\x11DkeD\xbd\x98\x04\x06\x9fD\xe9\x18\x1fDv\xdf\x92\x84\xd1~\xd1Z\x80\xba\xb0u\xcbS\xad\xa4R\n\xec\xd2\xeb\x81\x9a\xdaAX>7\xbd\x80\xf0\xb0\xf49\x8f\x0b\xf4\xaf\xde\x8b\xb6{;\xbd\x13\x82N\x98\x82\xe6\xab\xaae\x02\xa1\xaae\xb6\x8e\xf4\xce\x0c/\xb2\x0c\xac\xc1\xf8~e\xdfj\xe7\xcdE\n\xe9\x9aRF_\xaa\x9fF\r\x85x\x05O\'\xe3T\xae\x8f\xdc\xf4.\x83\x14?\xbe3\xf3\x0b\xebt\x93\x86\x15\xdcI\xbfR\xf4\xc8\xd8\x05\xaf\x13\x8c\xcdK\xbd\x8cE\xfb\xe3\x8b\x90c@\xf4\xc30\x05\x85\xd8Ma\xe5[$\x89\xe6\xa2XI\xae\x8d\xb2\xd2`\xd3\n\x1e({l\x1b,\xa0\xa2Ej\x94X/\xb0\xce\xb7\x87I\x19\xb6\x06\xd6Rr\x1e\x9d\xd3\xfaf\x10g6\xaf\xc2>\x93;\x14D\x8fe\xf9\xe5C\xa6\xc9nP?!\xb1z%_\xfde\xd0\xdb\xb11\xf3\xc8\xfe\xcd/\x870\xdf\xf7\xd0\t\x81\xff\xb2\xda\xf3`#]\xfe\xbb\xc9F\xbc\xa7\x89\xe7Fooui`E\xc1\x1c\xe2>R\x13V_{\xc2\x109Y\xf1\xa4\xf0d\xfa\x91,\x1e\x80\x1af\x94\x90o\xce\xd5\xbe\x88\xb3b\x82=O\x04\x02*\x1c\x1e\x9b\\\x14I\xb8L\xd4(o\x05\xfe\xa1h\xa9\xf1,k7\xc3\'|\xf9\x05z6\xf0\x94\xb8\xf6KJ\x08z\x1b\xfd\xee\x07W\x95\xdb\x02@\xfa>\x16\x17gm\xa7\xcf]_k;\xb7`\x85\x9d1L\xd7G+T\xc7\xcc\x98\xea\xf9\xd3\x9d~\xd1\xee\xf6\x90|S\x8e,\x8b=\xd2\x97t.\xe7\x08\xed\xc3O\xe1\x06bWjnTZ\x9c\xb9\x1a\x10\x8a\xa3\xb6\x8dBu\xb4\xa7\x90\xd4\x95\x9e\xffq\xda\x03{{\xa7@sh\x86z\xa9\x05=\xdeD\n\x7f\x13\xde\xd82\xe3\xeb\xf2Fm\xc4_Y\x18\xa2\x13\x1c\xd6\x12\xf4\x84y\xb2\xc8[\xb3%U\xb4\x87B;\xa9\xf0\x8cM\xcc\xf5\x01\xfb\xf81\xde\xaf\x1dw\rm\xb9\xe6<#\x1f\xbe`Z\xfb;\xd4\x8c\xd0\xc1\xba\xa9N\xeb\x1cpc\xea\x08\xa2\xa5\x98\xb2)\xf83\x00JyI\xb6\x83\xde\x82\xd9\x1d\xd8v\xd5\x18\xbc\xc6\x1d\xba\x10\xf5\xa5\x17p!\xc4f&n@9\x80\xcf\xbaSt\xee1q\xa8\x99i`>\xc2\xb4V\x99Cd\xebY\xc9\x9a\x80\xdb\'\xfe@\x94Z\xef\xd6\xcb\x16\x19\xf1\x90N\x14\xffn\xa6)\xf6B\x0e\xa7\xda6\xec\xdaGS\x82\xfd@\x04\x06\x9b\x14\xe66I\xea\xa1;\x1a\x98\xf6J,\xad\x15\xc88\xbe}\x0bD\xc1\xd5n\xfa\xf4_\xa5{\x15\xbb\xbfA\x8f\xb4>\xe0\xe7\xcf\xe2\xc3*\xab\x8c\xf4__\x02j\x9e\x88\x16o\x06;\x7ff\x9e\x01|DG\x8d\xaf\xcc\xdc\xc0FlF\n\xb9E\x97spz\xba\xdf\x0f\xd7\xc9\xb0\x86@\xd1\xfe3\xee9\xdf\xb2Ok\x02Y\x86\xdaQ\x1c\x03\x90\xa0\xa4\x87>C\x0ex\xf3\xfc\x06r\xfb\xbd\x00r\xd0\xf4i>.\xf8\xdd\x12\x04GbZ8\xce/\xe3\x8c6\n\x16H`\x03\xd1\x12\xda\xcf\x06K\xdaH\xeeg\xfa\r\x1a\x90d\xf7\x87\x1e\xc5\x08\x06\xd5,1\x06\xffv\x9eV\xc8\xf3\r;\xb79\xc3\xfd\x15\x86\x8c\xb1I\xb5t\xaa\\\xf4\xf5\xa1\xa3Q\xf7\xc0\xe7d4U\xcf\xc3\x1a\x118"O\xbd\xff\xca\x04PJ;\xc2VU^\xa2\x82\x14\x94|\xe0$\x16\xf3eSpx<\xcf)hm\xdd9\x83s\xfc\xc4\xf3rpQ\xb0\xfaZr _\x96\xf95Q\x06\xb9\xd1\x93]\xad\x10/\x94\x12NCd\xd6\xadE0*,@O\xa2;\x84\xd6z\xf3+\x95\x14i~\xb2\x88\xaf\x90\xb7bm\x91\xace\xb7\xaa\xf32\x19\xb2\x12\x98\xccE\xce\xc1/\x0eU\x1bo\xbc\x88x#\xc8\x1a\xf1\xa2\x81\xe7\xb7\xb2\r\x07\x17\xd6Z\xdc,\xe6A\xcf\xbbW\x977oU\xbd\xb4\x11\xac\xf7e\xfaO\x01\x1b\x82\xe5\xee\xc49l\x02\x936\xd6\x03\xa9A;\xf0\xa8\xca\xa3\'?\x1c\xda\xda\xc5l;/v\xb6p\xbf\xab<_\xa9(4\xad\xe3o\x0f\xdc\xf5Xz6]W\xf1\xb6\x03\x0f\xea\xf5\x7f\x1a\xb7}-\x10\x9d\xcc\x12#{\xb2lp\xa0\xaak\xf6\x82srx\xc37\x05\xd4\x1b\xb9\x85\xe9\xe4\xa8\xc6,\x07o\x98\xec\xd8\xe8\xd5\xabm\x02\xd6&^6\\"\x05\xaf\xf9)\xc8{\xbbf\xe1\x1a\\\x83\xabJZ\xb9m\x1dk\x07\xb2g\xd2\x01\xd4\xd2)\x19\xf2rT\xbc\x1d\x1a\x03\x1a\x84\x9c\xd0n\x18\xa0\x06#8\x1c`+\x1f\xb2LX\x9c\xbd\xf6~T\'(\xf5\x1b\x88\x014\xa8\xf3\x12\x94\xc5n\xb4(H\x9c\xb8\xffF\x19p2\x9f\rc\xb6FH\x8cP\xda]\xc6\xe4\x8d\xa6\xe6z\'\xf9P4)C\'\xbeN#\x8f>\x83<I \x97\x04\xcbl%\xfdz\x80\xb4\xe4\xf0\x84g\xf0\x88\xd7\x11VUwby(z\xc8\xfa\xd6\xady<\xff\xf3\x18V\xff\xf2\x12?\x03\xa5\xd9\xad\x90\xde\xf7\xa2\xd6u\xbf\x15\xf9=\xafs\x91L\xdes\xf9$7=]\x97\xd8\xf2?\x13U\xa0\x1b\x8f\xea0\xb9\xc6\xff\xf0\xab\xc4r0\xd3\x03\x06\xc8\xe8\xd5W\x0b\xb8~l*\x7f\x15n\xdf\xbc5Z^\xb4\xda\xe0e\x03\xfe\\\x8a\x02BX\x01\n\x8bqg\xa0\xc3\xd0\xca\xcfE\xc1\xbf\x8d!\xc4"~\xb3T\xdd \xa4\xda\xd4\xa2\xf3\x19\x84\x1e8\x0fc\xab\xc9a\xce \x13\xef*\x88\x16\xad\xb5@\xce\xbe\x90\x83\x86F\xa6d|\xc7\x86\xf6\x8a:\xe2\x81c\x12b\xadV\xcbO{\x89\xb8]U\xf7\xa3`\x17\xee16\xfd\xe0\x8f\xff6\x91\x8f\x8d\x8a\xcc\x98\xc80\xef\xdc\xe2g\xf1\xa5\xd6\xba:-f\x95\x90\xd6\xf3\\\x9b\x99\x7fjy\x8cm\xc2\x8ei\xc6kT\x9d\xf2\xce\xbf\xe1\xf5\xc8\xc9\xd5\xe7\x1e\x14}\xdaR\x14X\xb6/p\x1b\xc0S\x8c\xb13\x8a\xeaAh~%\x82\xee(}>\xcd\x97\xdc\x1a\xf66-M\xc28n&\x7f\xf5\x80\x1e\xf2Mn\xa3\xbb\x12\x8b4N\x08L\x02\xd6\xe6\x83\xda\xa5\x07\xd9\xa8S^{\x02d\xf1I\x17\xca\x8c\xcc/\x19\xc1\x13X\xa4%\x97xT+\xdb\xcd=Z\xa6\xd2\x1e5M\x92|\xfa\xca<}(\xa8 \x1e\xbc\xa7\xdaql\xbe}\xf4\xb1\x1c\xeb\xeb\xc0%0\xf4\x1c(\xd2w=2\x7f\xc26\x10\xa4 ;vhf\xc1W\'-\x1c\x1b\x8c\xe3\xdb\x89\xf0n\x84\x98\x1fG\xfb\xfdG\xd7\xba\xc7\xbe\x12\xbf;$,<\xd9\xc5\xf5\xa1k\xa8\xe2\xaa\xd5\xf0\xe0v:\xf7\xa1\x9a%\xbfJm/\xc7ZU\x99\x8d\xcb&e\xb9;\xd3\x9b\xcc\xb2\x84dd\xd7\x9d\x82x\r\xacfTQ\xd4d\xec8\x8f/\xd1\xfe\xa2e8\x14\xf6\xde/?\x07Pu\xb0|"\x12\xe6UE:\x7f\x9d\xdc\xb9j\xd8\xb3f#7\x02<l}\xd7>\x0eww\x85@\x9d\xbf\x9b\xfcl\x04\x96\x19[U\x0e\x04l&\xf3\x1daHY!\xf5}\x86\xbd\xa8\x80\xcf\x1d\xde\xaf\xb8\x1c\xc0\xd8T\x8b\xa5\xeb\xaa\xbb?\xb9\xb8\x16~\xde`\xc6D\xf3\x98\x8e\xfe\xf7q\xed\x86o\xe0/m\xf4{&L\xf5d\xde.\xb9\x84\xb3\xc9\xd1b\x1e\x88\x03\x1f\xb7\xb0Ms\xa1S\x83g;\xf9I\xdbV`\xb8)\xed\xfa\xfd9\x9c\xc4\xab\x87\xbcj\\\xe4'
p259
tp260
bI26
I0
F0.0
tp261
sS'halloffame'
p262
g3
(cdeap.tools.support
HallOfFame
p263
c__builtin__
object
p264
Ntp265
Rp266
(dp267
S'keys'
p268
(lp269
g3
(cdeap.creator
FitnessMulti
p270
g264
Ntp271
Rp272
(dp273
S'wvalues'
p274
(cnumpy.core.multiarray
scalar
p275
(g19
S'\xff\xda\xc3\x02\xf4\x9a\xd4?'
p276
tp277
Rp278
g275
(g19
S'#\xa8yP\x19(\xb4\xbe'
p279
tp280
Rp281
tp282
sbag3
(g270
g264
Ntp283
Rp284
(dp285
g274
(g275
(g19
S'\x1b\x80\x88LI\xaa\xd4?'
p286
tp287
Rp288
g275
(g19
S'\x9cC\x9aQ\xdc\xca\xbf\xbe'
p289
tp290
Rp291
tp292
sbag3
(g270
g264
Ntp293
Rp294
(dp295
g274
(g275
(g19
S'::\x9b\xce\xab\xef\xd4?'
p296
tp297
Rp298
g275
(g19
S'\xe4\xd3\xff\x8dG\xce\xb3\xbe'
p299
tp300
Rp301
tp302
sbasS'items'
p303
(lp304
g3
(cdeap.creator
Individual
p305
g5
(lp306
F0.07518574309624959
aF0.22983562845322514
aF0.027063863645387487
aF0.8658802523724498
aF0.9353743070165944
aF0.6519340320480721
aF0.3513557645699783
aF0.1449912545600731
aF0.09801920533159758
aF0.19088782108263058
aF0.726723812723088
aF0.18313762351994634
atp307
Rp308
(dp309
g237
g294
sbag3
(g305
g5
(lp310
F0.9956132889353683
aF0.8707463137655125
aF0.3091822511012724
aF0.6568350503604178
aF0.7519157709799703
aF0.6519340320480721
aF0.3513557645699783
aF0.1449912545600731
aF0.09801920533159758
aF0.03252976955540532
aF0.43653483850650987
aF0.18313762351994634
atp311
Rp312
(dp313
g237
g284
sbag3
(g305
g5
(lp314
F0.9956132889353683
aF0.8707463137655125
aF0.3091822511012724
aF0.6568350503604178
aF0.7519157709799703
aF0.6519340320480721
aF0.3513557645699783
aF0.1449912545600731
aF0.09801920533159758
aF0.19088782108263058
aF0.726723812723088
aF0.18313762351994634
atp315
Rp316
(dp317
g237
g272
sbasS'maxsize'
p318
I3
sS'similar'
p319
coperator
eq
p320
sbsS'population'
p321
(lp322
g3
(g305
g5
(lp323
F0.37522635762639134
aF0.500653345010477
aF0.5352652900782026
aF0.592788800884027
aF0.9327964975958185
aF0.8635306653199647
aF0.12674618391091275
aF0.39684532915389104
aF0.9486066892456676
aF0.42102493277493747
aF0.9162424626998329
aF0.859643844390699
atp324
Rp325
(dp326
g237
g3
(g270
g264
Ntp327
Rp328
(dp329
g274
(g275
(g19
S'\xbe;\x80\xeb2\x82\xb0?'
p330
tp331
Rp332
g275
(g19
S'\xe0\x92&\xb0\x08\xf7\x8a\xbe'
p333
tp334
Rp335
tp336
sbsbag3
(g305
g5
(lp337
F0.7205922870498653
aF0.5421847175399127
aF0.4118435572182081
aF0.049819113591858755
aF0.008316804387646703
aF0.532445988758655
aF0.9023751233716506
aF0.3500568193974586
aF0.9409310997163338
aF0.06958466002445107
aF0.4891845828465884
aF0.5616751792411632
atp338
Rp339
(dp340
g237
g3
(g270
g264
Ntp341
Rp342
(dp343
g274
(g275
(g19
S'!M\xadr\x99i\xc9?'
p344
tp345
Rp346
g275
(g19
S'@Y1;\xfc\xe6\xaf\xbe'
p347
tp348
Rp349
tp350
sbsbag3
(g305
g5
(lp351
F0.6503034606550839
aF0.06400329765614443
aF0.6631846330451692
aF0.8781286352036521
aF0.24704393480343678
aF0.060446795472100634
aF0.23916338929469994
aF0.12550748015738433
aF0.8091258613037003
aF0.03252976955540532
aF0.43653483850650987
aF0.3236781025478894
atp352
Rp353
(dp354
g237
g3
(g270
g264
Ntp355
Rp356
(dp357
g274
(g275
(g19
S'\xe6bo\t\xf4\xfb\xcb?'
p358
tp359
Rp360
g275
(g19
S',\xa5Y\x899\xb7\xa8\xbe'
p361
tp362
Rp363
tp364
sbsbag3
(g305
g5
(lp365
F0.07518574309624959
aF0.22983562845322514
aF0.027063863645387487
aF0.8658802523724498
aF0.9353743070165944
aF0.43734914046125306
aF0.17133186571212655
aF0.5641848147242043
aF0.7642340490666419
aF0.7509726809505161
aF0.8014658215153823
aF0.005128068131182717
atp366
Rp367
(dp368
g237
g3
(g270
g264
Ntp369
Rp370
(dp371
g274
(g275
(g19
S'\x9d2\xe1\xcd\x0b\xae\xcf?'
p372
tp373
Rp374
g275
(g19
S'\xe6\xf0\x80\x14\x9e\xb1|\xbe'
p375
tp376
Rp377
tp378
sbsbag3
(g305
g5
(lp379
F0.13660197202396684
aF0.5113288043195631
aF0.24704835157341265
aF0.012077697498965256
aF0.08493249496785027
aF0.09695613416930648
aF0.41471600493713767
aF0.8942425131443743
aF0.794285117377387
aF0.7424705387773283
aF0.2741075317732682
aF0.4574928673677575
atp380
Rp381
(dp382
g237
g3
(g270
g264
Ntp383
Rp384
(dp385
g274
(g275
(g19
S'JTg\\\xee\x87\xc0?'
p386
tp387
Rp388
g275
(g19
S'\xfd\xe0sm_t\x95\xbe'
p389
tp390
Rp391
tp392
sbsbag3
(g305
g5
(lp393
F0.48029386537649044
aF0.7184809922558609
aF0.7624840512988014
aF0.43902067637611863
aF0.7048770061305142
aF0.70648113895628
aF0.22508032775141096
aF0.5494421543632604
aF0.0833955189646226
aF0.895177195532474
aF0.1709077174683521
aF0.28231083367504783
atp394
Rp395
(dp396
g237
g3
(g270
g264
Ntp397
Rp398
(dp399
g274
(g275
(g19
S'S9\xda8\x9b2\xcb?'
p400
tp401
Rp402
g275
(g19
S'\xb1\xbeKI\x8c\xb9\xae\xbe'
p403
tp404
Rp405
tp406
sbsbag3
(g305
g5
(lp407
F0.08501810331818149
aF0.7388048348722248
aF0.30628871110389955
aF0.6611872753863068
aF0.45942462813638163
aF0.8952393669919023
aF0.08012427951427137
aF0.29379795703840206
aF0.12964377983015052
aF0.4761420334336016
aF0.17629707109020054
aF0.5783056087880415
atp408
Rp409
(dp410
g237
g3
(g270
g264
Ntp411
Rp412
(dp413
g274
(g275
(g19
S"S':c\xba\xfc\xc8?"
p414
tp415
Rp416
g275
(g19
S'B/\nfP\xf7\xac\xbe'
p417
tp418
Rp419
tp420
sbsbag3
(g305
g5
(lp421
F0.8827632324028624
aF0.029110464476874598
aF0.9660624913912225
aF0.6913080573264077
aF0.8333441045211146
aF0.310193653634921
aF0.4962991017264229
aF0.15999075192294376
aF0.3547938635120278
aF0.5450906565296376
aF0.9114433316097048
aF0.33951257873337204
atp422
Rp423
(dp424
g237
g3
(g270
g264
Ntp425
Rp426
(dp427
g274
(g275
(g19
S'\xe0\x95\xf0\xd4J5\xca?'
p428
tp429
Rp430
g275
(g19
S'\xb0\xf0\xe8\xd8\x0e\x18\xaa\xbe'
p431
tp432
Rp433
tp434
sbsbag3
(g305
g5
(lp435
F0.6818695593198911
aF0.4334055352340148
aF0.20118379725789026
aF0.8591253308728496
aF0.5415540618856662
aF0.3157750565199601
aF0.7808683558127923
aF0.6484013633432067
aF0.8827954707032654
aF0.4168330873539873
aF0.47785686006014017
aF0.36707011459105987
atp436
Rp437
(dp438
g237
g3
(g270
g264
Ntp439
Rp440
(dp441
g274
(g275
(g19
S'\xc8\xcc@Y#\xe8\xc9?'
p442
tp443
Rp444
g275
(g19
S'\x85\xc3\xdc\x82#\x8e\xab\xbe'
p445
tp446
Rp447
tp448
sbsbag3
(g305
g5
(lp449
F0.5632659525451047
aF0.34046002892789884
aF0.24535195962725054
aF0.6597025975995691
aF0.7759779653781307
aF0.6236558033669829
aF0.1076915358045284
aF0.4622361046243363
aF0.6646019786151334
aF0.5532772998093073
aF0.548247309016324
aF0.7589016934811661
atp450
Rp451
(dp452
g237
g3
(g270
g264
Ntp453
Rp454
(dp455
g274
(g275
(g19
S"\xe8'\x9f\xf6(\x9f\xb6?"
p456
tp457
Rp458
g275
(g19
S'\x99Z\xd7\xa2\x81v\x91\xbe'
p459
tp460
Rp461
tp462
sbsbag3
(g305
g5
(lp463
F0.3333209938152256
aF0.21666709113888716
aF0.09898365072201021
aF0.502870587557804
aF0.6298512172988237
aF0.6024126539249172
aF0.7033846415637107
aF0.4318099296257474
aF0.22925841962965232
aF0.6607726750560661
aF0.7338350859341267
aF0.8193732847726927
atp464
Rp465
(dp466
g237
g3
(g270
g264
Ntp467
Rp468
(dp469
g274
(g275
(g19
S'"\\*\xf8.\xde\xb1?'
p470
tp471
Rp472
g275
(g19
S'!\x9d)\xd0\xc4\xf7\x8c\xbe'
p473
tp474
Rp475
tp476
sbsbag3
(g305
g5
(lp477
F0.31881946690638996
aF0.6688490008856055
aF0.32962972625772435
aF0.2924614750804625
aF0.6476292533824257
aF0.5454124380369938
aF0.3188727332563178
aF0.17341930180600218
aF0.33561682910585566
aF0.40929065282948496
aF0.6979423652344788
aF0.6776991422228344
atp478
Rp479
(dp480
g237
g3
(g270
g264
Ntp481
Rp482
(dp483
g274
(g275
(g19
S'%\xb9\xca\xb0\xccH\xbe?'
p484
tp485
Rp486
g275
(g19
S'\x8e\x9e{\xcd\x15\x9e\x9f\xbe'
p487
tp488
Rp489
tp490
sbsbag3
(g305
g5
(lp491
F0.5823768749305492
aF0.6027065746745845
aF0.2266878114143389
aF0.060536215807511895
aF0.3360104343651005
aF0.008067912541754318
aF0.7332521507213359
aF0.21720878465891647
aF0.04763523170845885
aF0.31123927617762737
aF0.9746519885233632
aF0.8291371091995567
atp492
Rp493
(dp494
g237
g3
(g270
g264
Ntp495
Rp496
(dp497
g274
(g275
(g19
S'\xf8\x94H\x8b\xe5K\xa1?'
p498
tp499
Rp500
g275
(g19
S'w\x1f\xd8}-\x7fy\xbe'
p501
tp502
Rp503
tp504
sbsbag3
(g305
g5
(lp505
F0.081835958621567
aF0.5230832514155529
aF0.5845308259703359
aF0.9656661067379478
aF0.4988206281343267
aF0.5425409160544302
aF0.30892575454082294
aF0.6521541850681353
aF0.1749945053568498
aF0.20889563175257642
aF0.2646715372087235
aF0.9433149309115104
atp506
Rp507
(dp508
g237
g3
(g270
g264
Ntp509
Rp510
(dp511
g274
(g275
(g19
S']T/\x0e\xb0(\xab?'
p512
tp513
Rp514
g275
(g19
S'\x82\xcb\xdc\x00\x1bq\x89\xbe'
p515
tp516
Rp517
tp518
sbsbag3
(g305
g5
(lp519
F0.28506403201510844
aF0.287250991206759
aF0.2937317356486232
aF0.5695589140216034
aF0.6441528939703094
aF0.38245034041277015
aF0.564397074006404
aF0.6223204778524236
aF0.14275485352717165
aF0.40954403411934337
aF0.10819377156805954
aF0.3930749580050319
atp520
Rp521
(dp522
g237
g3
(g270
g264
Ntp523
Rp524
(dp525
g274
(g275
(g19
S'N\xd7\xce\xaet6\xcd?'
p526
tp527
Rp528
g275
(g19
S'\xd6\xeb\xd7\x95\xfa\xf9\xac\xbe'
p529
tp530
Rp531
tp532
sbsbag3
(g305
g5
(lp533
F0.08677938015427256
aF0.9904713216796052
aF0.290017730210022
aF0.29178174028827975
aF0.6623822382697192
aF0.5884363689754261
aF0.7569977146462613
aF0.9536018123998213
aF0.3056175013513529
aF0.1926779505862667
aF0.914402843324291
aF0.9160404531920611
atp534
Rp535
(dp536
g237
g3
(g270
g264
Ntp537
Rp538
(dp539
g274
(g275
(g19
S'\xe5_B\x9a\x9a\xc4\xa9?'
p540
tp541
Rp542
g275
(g19
S',\x8e\xbe%{\x1a\x84\xbe'
p543
tp544
Rp545
tp546
sbsbag3
(g305
g5
(lp547
F0.47671271247545854
aF0.7281881587860605
aF0.7846658919373396
aF0.062406260870754626
aF0.20940598528313004
aF0.3600584408191223
aF0.8227624493128664
aF0.902301587982776
aF0.16484553338172847
aF0.033717247784797566
aF0.17370411051152257
aF0.32974659125921135
atp548
Rp549
(dp550
g237
g3
(g270
g264
Ntp551
Rp552
(dp553
g274
(g275
(g19
S'\xc6g\xfc*6\xdb\xcb?'
p554
tp555
Rp556
g275
(g19
S'\xa4 \xb2p\x85\xd2\xa4\xbe'
p557
tp558
Rp559
tp560
sbsbag3
(g305
g5
(lp561
F0.7194786207982831
aF0.4200571991391915
aF0.5938509923215939
aF0.092635630616973
aF0.17798138741909864
aF0.39142626131472835
aF0.1553978476471981
aF0.07444360638782155
aF0.914788828627075
aF0.6470000057800233
aF0.4766785959209533
aF0.802060899671424
atp562
Rp563
(dp564
g237
g3
(g270
g264
Ntp565
Rp566
(dp567
g274
(g275
(g19
S'3b\xfb\x0fu\xf9\xb1?'
p568
tp569
Rp570
g275
(g19
S'4y3\x0c\x1d\x84\x8a\xbe'
p571
tp572
Rp573
tp574
sbsbag3
(g305
g5
(lp575
F0.9956132889353683
aF0.8707463137655125
aF0.3091822511012724
aF0.6568350503604178
aF0.7519157709799703
aF0.6519340320480721
aF0.3513557645699783
aF0.1449912545600731
aF0.09801920533159758
aF0.19088782108263058
aF0.726723812723088
aF0.18313762351994634
atp576
Rp577
(dp578
g237
g3
(g270
g264
Ntp579
Rp580
(dp581
g274
g282
sbsbag3
(g305
g5
(lp582
F0.6503034606550839
aF0.06400329765614443
aF0.6631846330451692
aF0.8781286352036521
aF0.24704393480343678
aF0.060446795472100634
aF0.23916338929469994
aF0.12550748015738433
aF0.8091258613037003
aF0.03252976955540532
aF0.43653483850650987
aF0.005128068131182717
atp583
Rp584
(dp585
g237
g3
(g270
g264
Ntp586
Rp587
(dp588
g274
(g275
(g19
S'\xa4\x01\x1ds\x02\xe7\xd2?'
p589
tp590
Rp591
g275
(g19
S'j\xb05!\x96\x04\xaa\xbe'
p592
tp593
Rp594
tp595
sbsbag3
(g305
g5
(lp596
F0.6503034606550839
aF0.06400329765614443
aF0.6631846330451692
aF0.8781286352036521
aF0.5415540618856662
aF0.3157750565199601
aF0.7808683558127923
aF0.6484013633432067
aF0.8827954707032654
aF0.4168330873539873
aF0.47785686006014017
aF0.36707011459105987
atp597
Rp598
(dp599
g237
g3
(g270
g264
Ntp600
Rp601
(dp602
g274
(g275
(g19
S'\xc8|\xa6\x10\x80\n\xca?'
p603
tp604
Rp605
g275
(g19
S'\x05\x82\xa8Pm"\xaa\xbe'
p606
tp607
Rp608
tp609
sbsbag3
(g305
g5
(lp610
F0.07518574309624959
aF0.22983562845322514
aF0.027063863645387487
aF0.8658802523724498
aF0.9353743070165944
aF0.43734914046125306
aF0.17133186571212655
aF0.5641848147242043
aF0.7642340490666419
aF0.7509726809505161
aF0.8014658215153823
aF0.3236781025478894
atp611
Rp612
(dp613
g237
g3
(g270
g264
Ntp614
Rp615
(dp616
g274
(g275
(g19
S'j\xd9\xe5\xb5\xb40\xcd?'
p617
tp618
Rp619
g275
(g19
S'2;^\\Q>\x9f\xbe'
p620
tp621
Rp622
tp623
sbsbag3
(g305
g5
(lp624
F0.48029386537649044
aF0.7184809922558609
aF0.7624840512988014
aF0.43902067637611863
aF0.7048770061305142
aF0.70648113895628
aF0.22508032775141096
aF0.5641848147242043
aF0.7642340490666419
aF0.7509726809505161
aF0.8014658215153823
aF0.005128068131182717
atp625
Rp626
(dp627
g237
g3
(g270
g264
Ntp628
Rp629
(dp630
g274
(g275
(g19
S'j<\x86G\x8eE\xcf?'
p631
tp632
Rp633
g275
(g19
S'%\xbb\x0b\\&\r\xa5\xbe'
p634
tp635
Rp636
tp637
sbsbag3
(g305
g5
(lp638
F0.6818695593198911
aF0.4334055352340148
aF0.20118379725789026
aF0.8591253308728496
aF0.24704393480343678
aF0.060446795472100634
aF0.23916338929469994
aF0.12550748015738433
aF0.8091258613037003
aF0.03252976955540532
aF0.43653483850650987
aF0.3236781025478894
atp639
Rp640
(dp641
g237
g3
(g270
g264
Ntp642
Rp643
(dp644
g274
(g275
(g19
S'j\xe5\r\x86|\xdf\xcb?'
p645
tp646
Rp647
g275
(g19
S'\xd9,\xdc\xe4\xba\xb5\xa9\xbe'
p648
tp649
Rp650
tp651
sbsbag3
(g305
g5
(lp652
F0.07518574309624959
aF0.22983562845322514
aF0.027063863645387487
aF0.8658802523724498
aF0.9353743070165944
aF0.43734914046125306
aF0.17133186571212655
aF0.5494421543632604
aF0.0833955189646226
aF0.895177195532474
aF0.1709077174683521
aF0.28231083367504783
atp653
Rp654
(dp655
g237
g3
(g270
g264
Ntp656
Rp657
(dp658
g274
(g275
(g19
S'\xa2\xb1rya\x92\xcd?'
p659
tp660
Rp661
g275
(g19
S'\x02-V\xb9\xce\x81\x9b\xbe'
p662
tp663
Rp664
tp665
sbsbag3
(g305
g5
(lp666
F0.07518574309624959
aF0.22983562845322514
aF0.027063863645387487
aF0.8781286352036521
aF0.24704393480343678
aF0.060446795472100634
aF0.23916338929469994
aF0.12550748015738433
aF0.8091258613037003
aF0.03252976955540532
aF0.43653483850650987
aF0.3236781025478894
atp667
Rp668
(dp669
g237
g3
(g270
g264
Ntp670
Rp671
(dp672
g274
(g275
(g19
S'\x08\x11\xec\xa9+\n\xcc?'
p673
tp674
Rp675
g275
(g19
S'\xf6\xeb\xe5y\x93\xa2\xa9\xbe'
p676
tp677
Rp678
tp679
sbsbag3
(g305
g5
(lp680
F0.8827632324028624
aF0.029110464476874598
aF0.9660624913912225
aF0.6913080573264077
aF0.8333441045211146
aF0.060446795472100634
aF0.23916338929469994
aF0.12550748015738433
aF0.8091258613037003
aF0.03252976955540532
aF0.43653483850650987
aF0.3236781025478894
atp681
Rp682
(dp683
g237
g3
(g270
g264
Ntp684
Rp685
(dp686
g274
(g275
(g19
S'\xa2\xf5\x98I\xdeC\xcb?'
p687
tp688
Rp689
g275
(g19
S'\x8e3F\x14\x0e|\xae\xbe'
p690
tp691
Rp692
tp693
sbsbag3
(g305
g5
(lp694
F0.6503034606550839
aF0.06400329765614443
aF0.6631846330451692
aF0.8781286352036521
aF0.24704393480343678
aF0.310193653634921
aF0.4962991017264229
aF0.15999075192294376
aF0.3547938635120278
aF0.5450906565296376
aF0.9114433316097048
aF0.33951257873337204
atp695
Rp696
(dp697
g237
g3
(g270
g264
Ntp698
Rp699
(dp700
g274
(g275
(g19
S'\x8a\xc4\xf3eN\xe5\xc8?'
p701
tp702
Rp703
g275
(g19
S'Q\x0f#\xd5\xf9\xbe\xa4\xbe'
p704
tp705
Rp706
tp707
sbsbag3
(g305
g5
(lp708
F0.9564158031440592
aF0.06620480157155317
aF0.5757543715970802
aF0.9757882569067975
aF0.289073636255089
aF0.2349457829232443
aF0.06386172148637281
aF0.635165177161319
aF0.359195570396479
aF0.15098137831074165
aF0.7430042921528531
aF0.4222887040902442
atp709
Rp710
(dp711
g237
g3
(g270
g264
Ntp712
Rp713
(dp714
g274
(g275
(g19
S'\x16A\x86tO\x86\xc8?'
p715
tp716
Rp717
g275
(g19
S'm\xcb<K\xaa\xde\xa2\xbe'
p718
tp719
Rp720
tp721
sbsbag3
(g305
g5
(lp722
F0.7287397170359219
aF0.48593364372970926
aF0.08890910348087855
aF0.2238719342750165
aF0.9808444178627154
aF0.44879489008026885
aF0.6143608379814814
aF0.9141542532326277
aF0.9476002752645083
aF0.857298971074372
aF0.6328739230888593
aF0.29068397574303095
atp723
Rp724
(dp725
g237
g3
(g270
g264
Ntp726
Rp727
(dp728
g274
(g275
(g19
S'\rU\x16\xc2\x87\x17\xcd?'
p729
tp730
Rp731
g275
(g19
S'ti_b\xd4\xf5\x9c\xbe'
p732
tp733
Rp734
tp735
sbsbag3
(g305
g5
(lp736
F0.39786498834523687
aF0.46453600516486404
aF0.3886612346023699
aF0.7446506630032318
aF0.10631481225424122
aF0.049573380380645626
aF0.5709804197154528
aF0.048285572557588474
aF0.9319831589218811
aF0.782951747372928
aF0.8672089912846499
aF0.5153447897196398
atp737
Rp738
(dp739
g237
g3
(g270
g264
Ntp740
Rp741
(dp742
g274
(g275
(g19
S'\xf8%M\xbd$\xce\xb9?'
p743
tp744
Rp745
g275
(g19
S'\x88\xdc\x0co\xef\x83\x92\xbe'
p746
tp747
Rp748
tp749
sbsbag3
(g305
g5
(lp750
F0.6503034606550839
aF0.06400329765614443
aF0.6631846330451692
aF0.8658802523724498
aF0.9353743070165944
aF0.43734914046125306
aF0.17133186571212655
aF0.5641848147242043
aF0.7642340490666419
aF0.7509726809505161
aF0.8014658215153823
aF0.005128068131182717
atp751
Rp752
(dp753
g237
g3
(g270
g264
Ntp754
Rp755
(dp756
g274
(g275
(g19
S'@\xb5\x18%\x15\xac\xcf?'
p757
tp758
Rp759
g275
(g19
S'2\x04Kz}2\x82\xbe'
p760
tp761
Rp762
tp763
sbsbag3
(g305
g5
(lp764
F0.9763654233558002
aF0.5901564071460392
aF0.08689601084543086
aF0.7154187578342892
aF0.511686395263987
aF0.47473230220416074
aF0.5163899400189397
aF0.32199436155505756
aF0.6482235243753874
aF0.07902664244211044
aF0.7113855316968948
aF0.6552611075522872
atp765
Rp766
(dp767
g237
g3
(g270
g264
Ntp768
Rp769
(dp770
g274
(g275
(g19
S'\xc2\x12\xc0^\xe4\x15\xc2?'
p771
tp772
Rp773
g275
(g19
S'\x8eUj4\xd5\x19\xa4\xbe'
p774
tp775
Rp776
tp777
sbsbag3
(g305
g5
(lp778
F0.38807436178331756
aF0.791362722652086
aF0.5597049787383841
aF0.4176137978525888
aF0.4429634518559066
aF0.7026964026287472
aF0.18012290920552887
aF0.5274849879938787
aF0.21309342488022953
aF0.48677214161396964
aF0.6887609173252859
aF0.8199672191907235
atp779
Rp780
(dp781
g237
g3
(g270
g264
Ntp782
Rp783
(dp784
g274
(g275
(g19
S'\x1e)\xf0\xfe\x00(\xb3?'
p785
tp786
Rp787
g275
(g19
S'~\xf5.f\xd7\x80\x92\xbe'
p788
tp789
Rp790
tp791
sbsbag3
(g305
g5
(lp792
F0.42521660017624063
aF0.8487308726474986
aF0.594361954153852
aF0.937199844344523
aF0.8576853579638426
aF0.36614556358966466
aF0.4016582850494149
aF0.10499322731253447
aF0.5225621298790389
aF0.7829895149387669
aF0.011179217863193647
aF0.2805506996241838
atp793
Rp794
(dp795
g237
g3
(g270
g264
Ntp796
Rp797
(dp798
g274
(g275
(g19
S'}\x98&\x8f\xca\xdd\xca?'
p799
tp800
Rp801
g275
(g19
S'y\xcfc\xd6sc\xa8\xbe'
p802
tp803
Rp804
tp805
sbsbag3
(g305
g5
(lp806
F0.46129879911574245
aF0.3748697219559637
aF0.4397688023523134
aF0.14377461106450318
aF0.436980728723245
aF0.532997447865128
aF0.8074515952036189
aF0.7022963579291746
aF0.8104718555474553
aF0.8130055245406327
aF0.5332550287388517
aF0.7682440903304391
atp807
Rp808
(dp809
g237
g3
(g270
g264
Ntp810
Rp811
(dp812
g274
(g275
(g19
S'\xbf\x8f\x8a\xcb/\xf8\xb5?'
p813
tp814
Rp815
g275
(g19
S'\xf5\t\xff},\x7f\x92\xbe'
p816
tp817
Rp818
tp819
sbsbag3
(g305
g5
(lp820
F0.7199966020444826
aF0.7227856671412624
aF0.6041042549174807
aF0.7643904031754868
aF0.6557249527102837
aF0.9434425125333602
aF0.09030509855376956
aF0.8874040591711146
aF0.46251738798858544
aF0.8316156241030686
aF0.4321062024221529
aF0.4823127268939644
atp821
Rp822
(dp823
g237
g3
(g270
g264
Ntp824
Rp825
(dp826
g274
(g275
(g19
S'54\xa2c{\xe9\xca?'
p827
tp828
Rp829
g275
(g19
S'\x1a\x1c\xd7\xe6\xfcF\xa4\xbe'
p830
tp831
Rp832
tp833
sbsbag3
(g305
g5
(lp834
F0.6996359614551146
aF0.4927004226483781
aF0.6648866634620884
aF0.7921205958559793
aF0.673139296189354
aF0.210856618259185
aF0.7813650849573669
aF0.04895953680809584
aF0.004697833829889531
aF0.02894043772867194
aF0.07846745216517492
aF0.8830447724739913
atp835
Rp836
(dp837
g237
g3
(g270
g264
Ntp838
Rp839
(dp840
g274
(g275
(g19
S'!\x0f\xb9\xb1\xecR\xa8?'
p841
tp842
Rp843
g275
(g19
S'\xd4\\J]L\xec\x82\xbe'
p844
tp845
Rp846
tp847
sbsbag3
(g305
g5
(lp848
F0.822454849678621
aF0.27515112332160163
aF0.22140265046913332
aF0.4616668881805406
aF0.6267855759813594
aF0.3757979235058828
aF0.7354584734221384
aF0.09991914941820268
aF0.5068953568584154
aF0.9554883899404228
aF0.6746729367999724
aF0.9644835285878248
atp849
Rp850
(dp851
g237
g3
(g270
g264
Ntp852
Rp853
(dp854
g274
(g275
(g19
S'\xaa\x89\xfa\x9f\xb4\x92\xa4?'
p855
tp856
Rp857
g275
(g19
S'\x9d\xf9\x8aAt8\x7f\xbe'
p858
tp859
Rp860
tp861
sbsbag3
(g305
g5
(lp862
F0.07518574309624959
aF0.22983562845322514
aF0.027063863645387487
aF0.8658802523724498
aF0.9353743070165944
aF0.6519340320480721
aF0.3513557645699783
aF0.1449912545600731
aF0.09801920533159758
aF0.19088782108263058
aF0.726723812723088
aF0.18313762351994634
atp863
Rp864
(dp865
g237
g3
(g270
g264
Ntp866
Rp867
(dp868
g274
g302
sbsbag3
(g305
g5
(lp869
F0.6503034606550839
aF0.06400329765614443
aF0.6631846330451692
aF0.8658802523724498
aF0.9353743070165944
aF0.43734914046125306
aF0.17133186571212655
aF0.5641848147242043
aF0.7642340490666419
aF0.7509726809505161
aF0.8014658215153823
aF0.005128068131182717
atp870
Rp871
(dp872
g237
g3
(g270
g264
Ntp873
Rp874
(dp875
g274
(g275
(g19
S'@\xb5\x18%\x15\xac\xcf?'
p876
tp877
Rp878
g275
(g19
S'2\x04Kz}2\x82\xbe'
p879
tp880
Rp881
tp882
sbsbag3
(g305
g5
(lp883
F0.9956132889353683
aF0.8707463137655125
aF0.3091822511012724
aF0.6568350503604178
aF0.7519157709799703
aF0.43734914046125306
aF0.17133186571212655
aF0.5641848147242043
aF0.7642340490666419
aF0.7509726809505161
aF0.8014658215153823
aF0.005128068131182717
atp884
Rp885
(dp886
g237
g3
(g270
g264
Ntp887
Rp888
(dp889
g274
(g275
(g19
S'\xc6ga&!E\xcf?'
p890
tp891
Rp892
g275
(g19
S'h\n\xbbA\x18\x9c\x9b\xbe'
p893
tp894
Rp895
tp896
sbsbag3
(g305
g5
(lp897
F0.6503034606550839
aF0.06400329765614443
aF0.6631846330451692
aF0.8658802523724498
aF0.9353743070165944
aF0.060446795472100634
aF0.23916338929469994
aF0.12550748015738433
aF0.8091258613037003
aF0.03252976955540532
aF0.43653483850650987
aF0.005128068131182717
atp898
Rp899
(dp900
g237
g3
(g270
g264
Ntp901
Rp902
(dp903
g274
(g275
(g19
S'T\x10\xee[\xfer\xd2?'
p904
tp905
Rp906
g275
(g19
S'\x85\x8fc\xe7\\\xd1\xab\xbe'
p907
tp908
Rp909
tp910
sbsbag3
(g305
g5
(lp911
F0.6503034606550839
aF0.06400329765614443
aF0.6631846330451692
aF0.8781286352036521
aF0.24704393480343678
aF0.43734914046125306
aF0.17133186571212655
aF0.5641848147242043
aF0.7642340490666419
aF0.7509726809505161
aF0.8014658215153823
aF0.005128068131182717
atp912
Rp913
(dp914
g237
g3
(g270
g264
Ntp915
Rp916
(dp917
g274
(g275
(g19
S'n<\xad\x89X\xb0\xcf?'
p918
tp919
Rp920
g275
(g19
S"Q\xc2[\xa9\xd1'\x81\xbe"
p921
tp922
Rp923
tp924
sbsbag3
(g305
g5
(lp925
F0.8549606909644439
aF0.6505597945231014
aF0.8704860678091094
aF0.9023988905336898
aF0.6783530335638215
aF0.24193639956893065
aF0.49034143196921454
aF0.4326892870188854
aF0.7932508764573581
aF0.7068363544127055
aF0.19961962684610302
aF0.4212160829898113
atp926
Rp927
(dp928
g237
g3
(g270
g264
Ntp929
Rp930
(dp931
g274
(g275
(g19
S'\xfd/\xdc\xec\x02&\xc5?'
p932
tp933
Rp934
g275
(g19
S'\xb4\xe5\x8f\x89\x98\x0b\x9b\xbe'
p935
tp936
Rp937
tp938
sbsbag3
(g305
g5
(lp939
F0.7287397170359219
aF0.48593364372970926
aF0.08890910348087855
aF0.2238719342750165
aF0.9808444178627154
aF0.44879489008026885
aF0.9945276462478372
aF0.9141542532326277
aF0.9476002752645083
aF0.12214851977688646
aF0.6328739230888593
aF0.29068397574303095
atp940
Rp941
(dp942
g237
g3
(g270
g264
Ntp943
Rp944
(dp945
g274
(g275
(g19
S'\x1a.\x8ec\xb8.\xcf?'
p946
tp947
Rp948
g275
(g19
S'\xb5\xb2x\xc4\x1d]\xa1\xbe'
p949
tp950
Rp951
tp952
sbsbag3
(g305
g5
(lp953
F0.48029386537649044
aF0.7184809922558609
aF0.7624840512988014
aF0.43902067637611863
aF0.7519157709799703
aF0.6519340320480721
aF0.3513557645699783
aF0.1449912545600731
aF0.09801920533159758
aF0.19088782108263058
aF0.726723812723088
aF0.18313762351994634
atp954
Rp955
(dp956
g237
g3
(g270
g264
Ntp957
Rp958
(dp959
g274
(g275
(g19
S'N\x17j\x9e\xaa+\xd2?'
p960
tp961
Rp962
g275
(g19
S'\xf0Rv\xbcU\xc7\xa9\xbe'
p963
tp964
Rp965
tp966
sbsbag3
(g305
g5
(lp967
F0.9956132889353683
aF0.8707463137655125
aF0.3091822511012724
aF0.6568350503604178
aF0.7048770061305142
aF0.70648113895628
aF0.22508032775141096
aF0.5641848147242043
aF0.7642340490666419
aF0.7509726809505161
aF0.8014658215153823
aF0.005128068131182717
atp968
Rp969
(dp970
g237
g3
(g270
g264
Ntp971
Rp972
(dp973
g274
(g275
(g19
S'\x10\xb9i\xa90V\xce?'
p974
tp975
Rp976
g275
(g19
S'\xf3\x88\xf6\x93w\x8c\xae\xbe'
p977
tp978
Rp979
tp980
sbsbag3
(g305
g5
(lp981
F0.09176054158551095
aF0.9179296206944415
aF0.8608706462158797
aF0.5158727617461076
aF0.9329189147125406
aF0.7445215509217344
aF0.31369067381154614
aF0.9620841362667003
aF0.33620053723119714
aF0.20905550247789995
aF0.5033830806770261
aF0.22562533150148678
atp982
Rp983
(dp984
g237
g3
(g270
g264
Ntp985
Rp986
(dp987
g274
(g275
(g19
S'\x8b\xae\xcd\xe8\xa3\xed\xce?'
p988
tp989
Rp990
g275
(g19
S'(\x1f\xbbt\x8f/\xa1\xbe'
p991
tp992
Rp993
tp994
sbsbag3
(g305
g5
(lp995
F0.9770671683015764
aF0.4303551944130105
aF0.297667510566773
aF0.21740199678572136
aF0.43025951015437025
aF0.5375405735398768
aF0.16105234294011228
aF0.9151059959274997
aF0.9148046337032791
aF0.0717174693225261
aF0.46481813481735623
aF0.20703127761141493
atp996
Rp997
(dp998
g237
g3
(g270
g264
Ntp999
Rp1000
(dp1001
g274
(g275
(g19
S'&\xdc\x1e\x81\x9d?\xcf?'
p1002
tp1003
Rp1004
g275
(g19
S'\x9b\x84;\x841\x9a\xa6\xbe'
p1005
tp1006
Rp1007
tp1008
sbsbag3
(g305
g5
(lp1009
F0.44311889998618825
aF0.6045154786842807
aF0.3424357295133358
aF0.4532346760059015
aF0.8314895438301666
aF0.8339937591407216
aF0.4629630240281606
aF0.16237630520941326
aF0.6390812006918011
aF0.7725052720368145
aF0.62815376504141
aF0.8959948573113856
atp1010
Rp1011
(dp1012
g237
g3
(g270
g264
Ntp1013
Rp1014
(dp1015
g274
(g275
(g19
S'C"\xd3\x15&s\xac?'
p1016
tp1017
Rp1018
g275
(g19
S'>\xb6\xcc[\x93\xc9\x84\xbe'
p1019
tp1020
Rp1021
tp1022
sbsbag3
(g305
g5
(lp1023
F0.8433210839256918
aF0.7223101397292919
aF0.3124048098278832
aF0.14335737889830236
aF0.09514780492713792
aF0.0876852670679874
aF0.5000339652085362
aF0.2785415304765527
aF0.07996370116943363
aF0.9697886741686047
aF0.5182892805713089
aF0.16516847627432074
atp1024
Rp1025
(dp1026
g237
g3
(g270
g264
Ntp1027
Rp1028
(dp1029
g274
(g275
(g19
S'\xeb\x8e\xea\x8d\x88\x1a\xcb?'
p1030
tp1031
Rp1032
g275
(g19
S'\xea\x7f\xd1+\x00\xd0\xa2\xbe'
p1033
tp1034
Rp1035
tp1036
sbsbag3
(g305
g5
(lp1037
F0.5734470508972314
aF0.42406966731512086
aF0.5435658079126429
aF0.07119701856117522
aF0.666935446001579
aF0.2879554310674469
aF0.22159075146354967
aF0.16607744715472628
aF0.9506352601462109
aF0.4380968744691015
aF0.2221128444402961
aF0.13760833363722036
atp1038
Rp1039
(dp1040
g237
g3
(g270
g264
Ntp1041
Rp1042
(dp1043
g274
(g275
(g19
S'\xea\xc9\x12\xb9\x03\x19\xcb?'
p1044
tp1045
Rp1046
g275
(g19
S'\x9b\x14u)\xf9<\xb2\xbe'
p1047
tp1048
Rp1049
tp1050
sbsbag3
(g305
g5
(lp1051
F0.02312506312537166
aF0.9168721628343477
aF0.9682000869673222
aF0.3385262064946635
aF0.21571857374018677
aF0.2617065040993949
aF0.44616512392146823
aF0.8361186576667221
aF0.7004424466983222
aF0.6809345586975467
aF0.027160777344661602
aF0.9586282054546833
atp1052
Rp1053
(dp1054
g237
g3
(g270
g264
Ntp1055
Rp1056
(dp1057
g274
(g275
(g19
S'^?W\xdfo\x08\xa3?'
p1058
tp1059
Rp1060
g275
(g19
S'\xca\xb4U>\xcf~z\xbe'
p1061
tp1062
Rp1063
tp1064
sbsbag3
(g305
g5
(lp1065
F0.37839271562346344
aF0.41538345737475857
aF0.6805615161279707
aF0.7280125252873122
aF0.2810589402176785
aF0.7121061749094029
aF0.8333694617095642
aF0.28489833332588943
aF0.9162577897775326
aF0.37497491157188134
aF0.8068082671971933
aF0.973717540801144
atp1066
Rp1067
(dp1068
g237
g3
(g270
g264
Ntp1069
Rp1070
(dp1071
g274
(g275
(g19
S'<\x9d\xe14\x0b\x17\xa7?'
p1072
tp1073
Rp1074
g275
(g19
S'\x1c\x1b\xde\xa4\x843\x82\xbe'
p1075
tp1076
Rp1077
tp1078
sbsbag3
(g305
g5
(lp1079
F0.6503034606550839
aF0.06400329765614443
aF0.6631846330451692
aF0.8658802523724498
aF0.9353743070165944
aF0.060446795472100634
aF0.23916338929469994
aF0.12550748015738433
aF0.8091258613037003
aF0.19088782108263058
aF0.726723812723088
aF0.18313762351994634
atp1080
Rp1081
(dp1082
g237
g3
(g270
g264
Ntp1083
Rp1084
(dp1085
g274
(g275
(g19
S'cg"\x0e\x9d\x15\xd1?'
p1086
tp1087
Rp1088
g275
(g19
S'\xe5\xa1\xa7\x92\xbf\xf2\xa4\xbe'
p1089
tp1090
Rp1091
tp1092
sbsbag3
(g305
g5
(lp1093
F0.9956132889353683
aF0.8707463137655125
aF0.3091822511012724
aF0.6568350503604178
aF0.7519157709799703
aF0.6519340320480721
aF0.3513557645699783
aF0.1449912545600731
aF0.09801920533159758
aF0.03252976955540532
aF0.43653483850650987
aF0.005128068131182717
atp1094
Rp1095
(dp1096
g237
g3
(g270
g264
Ntp1097
Rp1098
(dp1099
g274
(g275
(g19
S'\xa0\xfeN\x81\xdeL\xd3?'
p1100
tp1101
Rp1102
g275
(g19
S'\x01\xcd\x01B\x9b7\xb5\xbe'
p1103
tp1104
Rp1105
tp1106
sbsbag3
(g305
g5
(lp1107
F0.07518574309624959
aF0.22983562845322514
aF0.7031151842153793
aF0.8658802523724498
aF0.7027544386927214
aF0.991123287990312
aF0.0795906654085391
aF0.5641848147242043
aF0.7642340490666419
aF0.7509726809505161
aF0.8014658215153823
aF0.005128068131182717
atp1108
Rp1109
(dp1110
g237
g3
(g270
g264
Ntp1111
Rp1112
(dp1113
g274
(g275
(g19
S'\xa3\xa7\xc1G\xbc\xae\xcf?'
p1114
tp1115
Rp1116
g275
(g19
S'\x13\x84\xcb`\x10\xb6\x82\xbe'
p1117
tp1118
Rp1119
tp1120
sbsbag3
(g305
g5
(lp1121
F0.6503034606550839
aF0.06400329765614443
aF0.6631846330451692
aF0.8658802523724498
aF0.9353743070165944
aF0.060446795472100634
aF0.23916338929469994
aF0.12550748015738433
aF0.8091258613037003
aF0.03252976955540532
aF0.43653483850650987
aF0.28231083367504783
atp1122
Rp1123
(dp1124
g237
g3
(g270
g264
Ntp1125
Rp1126
(dp1127
g274
(g275
(g19
S']\x80\x02]\xdcP\xcd?'
p1128
tp1129
Rp1130
g275
(g19
S'\xb4V\xdag\xe2M\xac\xbe'
p1131
tp1132
Rp1133
tp1134
sbsbag3
(g305
g5
(lp1135
F0.07518574309624959
aF0.22983562845322514
aF0.027063863645387487
aF0.8658802523724498
aF0.9353743070165944
aF0.43734914046125306
aF0.17133186571212655
aF0.5641848147242043
aF0.7642340490666419
aF0.7509726809505161
aF0.8014658215153823
aF0.005128068131182717
atp1136
Rp1137
(dp1138
g237
g3
(g270
g264
Ntp1139
Rp1140
(dp1141
g274
(g275
(g19
S'\x9b2\xe1\xcd\x0b\xae\xcf?'
p1142
tp1143
Rp1144
g275
(g19
S'\xe6\xf0\x80\x14\x9e\xb1|\xbe'
p1145
tp1146
Rp1147
tp1148
sbsbag3
(g305
g5
(lp1149
F0.285545701113903
aF0.2797018454178264
aF0.40055364854202413
aF0.815246131021101
aF0.8077111168450117
aF0.9612850304028858
aF0.033065297312302566
aF0.9147975175806378
aF0.9831274166456405
aF0.8189989380354419
aF0.013425572461629565
aF0.5531514554411038
atp1150
Rp1151
(dp1152
g237
g3
(g270
g264
Ntp1153
Rp1154
(dp1155
g274
(g275
(g19
S'hX\xc5S1\x1a\xc6?'
p1156
tp1157
Rp1158
g275
(g19
S'\xf6s\x14e\x08\xce\xd0\xbe'
p1159
tp1160
Rp1161
tp1162
sbsbag3
(g305
g5
(lp1163
F0.48029386537649044
aF0.7184809922558609
aF0.7624840512988014
aF0.43902067637611863
aF0.7048770061305142
aF0.70648113895628
aF0.22508032775141096
aF0.5494421543632604
aF0.0833955189646226
aF0.895177195532474
aF0.1709077174683521
aF0.005128068131182717
atp1164
Rp1165
(dp1166
g237
g3
(g270
g264
Ntp1167
Rp1168
(dp1169
g274
(g275
(g19
S'M\xa47\xf8\xaf\x9b\xcf?'
p1170
tp1171
Rp1172
g275
(g19
S')J\x7f|\x96\x9c\xa2\xbe'
p1173
tp1174
Rp1175
tp1176
sbsbag3
(g305
g5
(lp1177
F0.6503034606550839
aF0.06400329765614443
aF0.6631846330451692
aF0.8658802523724498
aF0.9353743070165944
aF0.43734914046125306
aF0.17133186571212655
aF0.5641848147242043
aF0.7642340490666419
aF0.7509726809505161
aF0.8014658215153823
aF0.005128068131182717
atp1178
Rp1179
(dp1180
g237
g3
(g270
g264
Ntp1181
Rp1182
(dp1183
g274
(g275
(g19
S'@\xb5\x18%\x15\xac\xcf?'
p1184
tp1185
Rp1186
g275
(g19
S'2\x04Kz}2\x82\xbe'
p1187
tp1188
Rp1189
tp1190
sbsbag3
(g305
g5
(lp1191
F0.35121875328010743
aF0.5587096775964395
aF0.2692283428947927
aF0.8306286435505315
aF0.4554514732953189
aF0.6962018988234261
aF0.5039992859722591
aF0.31251917860950706
aF0.3406392082967037
aF0.2762258749010533
aF0.9214539271885666
aF0.9585806877081207
atp1192
Rp1193
(dp1194
g237
g3
(g270
g264
Ntp1195
Rp1196
(dp1197
g274
(g275
(g19
S'\xd4\xb8\xa4\xd4\x9b.\xa7?'
p1198
tp1199
Rp1200
g275
(g19
S'\xf2/\xc9 \xb6\xa5\x83\xbe'
p1201
tp1202
Rp1203
tp1204
sbsbag3
(g305
g5
(lp1205
F0.7967686561555182
aF0.7399450859051051
aF0.9303403128784217
aF0.1876832691571806
aF0.3344658586377319
aF0.8533606706962963
aF0.44291246240756665
aF0.54930841318767
aF0.5755265805396304
aF0.0319690993833559
aF0.0023898556421326766
aF0.7437510148961426
atp1206
Rp1207
(dp1208
g237
g3
(g270
g264
Ntp1209
Rp1210
(dp1211
g274
(g275
(g19
S'\x00F\x06A\xe4[\xbb?'
p1212
tp1213
Rp1214
g275
(g19
S's\xd0\n\x9c\x04\xdc\x9b\xbe'
p1215
tp1216
Rp1217
tp1218
sbsbag3
(g305
g5
(lp1219
F0.5757796246739866
aF0.6442491731122487
aF0.9348090822110463
aF0.9504166145050152
aF0.13563816362369363
aF0.307406987066152
aF0.9355203588302218
aF0.554749367840398
aF0.43151358177703214
aF0.2040472167793086
aF0.4336057864695436
aF0.5841700978585033
atp1220
Rp1221
(dp1222
g237
g3
(g270
g264
Ntp1223
Rp1224
(dp1225
g274
(g275
(g19
S'p\xd5M\x98;9\xc2?'
p1226
tp1227
Rp1228
g275
(g19
S'|\x89(\xf1\xa2!\xa0\xbe'
p1229
tp1230
Rp1231
tp1232
sbsbag3
(g305
g5
(lp1233
F0.6241204477508735
aF0.30954601516571234
aF0.19034050616869813
aF0.546126925436916
aF0.7211880941145977
aF0.7675320378311835
aF0.49066165085321045
aF0.32677323302246475
aF0.20965142710820506
aF0.03814798173451439
aF0.5827265105054462
aF0.4901867167957512
atp1234
Rp1235
(dp1236
g237
g3
(g270
g264
Ntp1237
Rp1238
(dp1239
g274
(g275
(g19
S'\xbeG\x19G\x8c\xf6\xca?'
p1240
tp1241
Rp1242
g275
(g19
S'+5\x0e\x9c\xe1\x03\xa7\xbe'
p1243
tp1244
Rp1245
tp1246
sbsbag3
(g305
g5
(lp1247
F0.6937086391953399
aF0.5362749804402703
aF0.030916696601116622
aF0.2001575375063681
aF0.5061288595065029
aF0.7237422105252628
aF0.5403261349419285
aF0.8295536074055047
aF0.870969301698216
aF0.2770087627832808
aF0.09341952712254209
aF0.782440233175436
atp1248
Rp1249
(dp1250
g237
g3
(g270
g264
Ntp1251
Rp1252
(dp1253
g274
(g275
(g19
S'\x16]\x11H#\x85\xb6?'
p1254
tp1255
Rp1256
g275
(g19
S'~\x97\x94\x8a\xa2\x8e\x98\xbe'
p1257
tp1258
Rp1259
tp1260
sbsbag3
(g305
g5
(lp1261
F0.9104695940825546
aF0.22581266520537968
aF0.8197891436518432
aF0.996179242420482
aF0.0009913097046184705
aF0.21275782171085644
aF0.5485508786689053
aF0.3398455346287651
aF0.44346522925962173
aF0.6382642154091885
aF0.5828397695084727
aF0.4064771327721768
atp1262
Rp1263
(dp1264
g237
g3
(g270
g264
Ntp1265
Rp1266
(dp1267
g274
(g275
(g19
S'n\xac\xc7\xca\xfb\x0e\xc5?'
p1268
tp1269
Rp1270
g275
(g19
S'\xb1D\x14wa|\x9c\xbe'
p1271
tp1272
Rp1273
tp1274
sbsbag3
(g305
g5
(lp1275
F0.9956132889353683
aF0.8707463137655125
aF0.3091822511012724
aF0.6568350503604178
aF0.24704393480343678
aF0.43734914046125306
aF0.17133186571212655
aF0.5641848147242043
aF0.7642340490666419
aF0.7509726809505161
aF0.8014658215153823
aF0.005128068131182717
atp1276
Rp1277
(dp1278
g237
g3
(g270
g264
Ntp1279
Rp1280
(dp1281
g274
(g275
(g19
S'\xc6\x84:|\xb2g\xcf?'
p1282
tp1283
Rp1284
g275
(g19
S'\xfe\x8c|\x86G;\x88\xbe'
p1285
tp1286
Rp1287
tp1288
sbsbag3
(g305
g5
(lp1289
F0.6503034606550839
aF0.06400329765614443
aF0.6631846330451692
aF0.8781286352036521
aF0.7519157709799703
aF0.6519340320480721
aF0.3513557645699783
aF0.1449912545600731
aF0.09801920533159758
aF0.03252976955540532
aF0.43653483850650987
aF0.005128068131182717
atp1290
Rp1291
(dp1292
g237
g3
(g270
g264
Ntp1293
Rp1294
(dp1295
g274
(g275
(g19
S'd\xd2\xce|\xf9/\xd4?'
p1296
tp1297
Rp1298
g275
(g19
S'\x89\x11c\xff\xc6 \xb7\xbe'
p1299
tp1300
Rp1301
tp1302
sbsbag3
(g305
g5
(lp1303
F0.9956132889353683
aF0.8707463137655125
aF0.3091822511012724
aF0.6568350503604178
aF0.7519157709799703
aF0.6519340320480721
aF0.3513557645699783
aF0.1449912545600731
aF0.09801920533159758
aF0.03252976955540532
aF0.1709077174683521
aF0.28231083367504783
atp1304
Rp1305
(dp1306
g237
g3
(g270
g264
Ntp1307
Rp1308
(dp1309
g274
(g275
(g19
S'\x04\x9f\xbeL^\xa5\xd3?'
p1310
tp1311
Rp1312
g275
(g19
S'<\x7fR\xab\x03*\xbf\xbe'
p1313
tp1314
Rp1315
tp1316
sbsbag3
(g305
g5
(lp1317
F0.710815373910121
aF0.34277570950287406
aF0.14769202759823208
aF0.40421822421253717
aF0.11294343609019852
aF0.41088916216087223
aF0.061520424049174016
aF0.11359754561834423
aF0.8719212332762051
aF0.4853038800983084
aF0.8520207039376742
aF0.2850796361697151
atp1318
Rp1319
(dp1320
g237
g3
(g270
g264
Ntp1321
Rp1322
(dp1323
g274
(g275
(g19
S'["\xee\xcc\x84\xfd\xca?'
p1324
tp1325
Rp1326
g275
(g19
S'\xb8\xd3W/\xeb|\xb1\xbe'
p1327
tp1328
Rp1329
tp1330
sbsbag3
(g305
g5
(lp1331
F0.07518574309624959
aF0.22983562845322514
aF0.027063863645387487
aF0.8658802523724498
aF0.9353743070165944
aF0.6519340320480721
aF0.3513557645699783
aF0.1449912545600731
aF0.09801920533159758
aF0.19088782108263058
aF0.726723812723088
aF0.005128068131182717
atp1332
Rp1333
(dp1334
g237
g3
(g270
g264
Ntp1335
Rp1336
(dp1337
g274
(g275
(g19
S'!\xc3\xe0^h\xd6\xd3?'
p1338
tp1339
Rp1340
g275
(g19
S'\xcd,\xca\xf6\x94t\xad\xbe'
p1341
tp1342
Rp1343
tp1344
sbsbag3
(g305
g5
(lp1345
F0.07518574309624959
aF0.22983562845322514
aF0.027063863645387487
aF0.8658802523724498
aF0.9353743070165944
aF0.43734914046125306
aF0.17133186571212655
aF0.5494421543632604
aF0.0833955189646226
aF0.895177195532474
aF0.43653483850650987
aF0.005128068131182717
atp1346
Rp1347
(dp1348
g237
g3
(g270
g264
Ntp1349
Rp1350
(dp1351
g274
(g275
(g19
S':x\xab\xc2\xc5\xdb\xcf?'
p1352
tp1353
Rp1354
g275
(g19
S'\xb1j\x12\x9b\x04\x17n\xbe'
p1355
tp1356
Rp1357
tp1358
sbsbag3
(g305
g5
(lp1359
F0.9956132889353683
aF0.8707463137655125
aF0.3091822511012724
aF0.6568350503604178
aF0.7519157709799703
aF0.6519340320480721
aF0.3513557645699783
aF0.1449912545600731
aF0.09801920533159758
aF0.03252976955540532
aF0.43653483850650987
aF0.18313762351994634
atp1360
Rp1361
(dp1362
g237
g3
(g270
g264
Ntp1363
Rp1364
(dp1365
g274
g292
sbsbag3
(g305
g5
(lp1366
F0.9647830047407906
aF0.3753852521159463
aF0.7616143227032172
aF0.28036635637414664
aF0.13252818136213929
aF0.40432872463470737
aF0.043208402311003535
aF0.16496884752808072
aF0.07189993354725421
aF0.5705964345028198
aF0.6948892104675837
aF0.35685741166646856
atp1367
Rp1368
(dp1369
g237
g3
(g270
g264
Ntp1370
Rp1371
(dp1372
g274
(g275
(g19
S'v@\xd9M#\xcf\xcb?'
p1373
tp1374
Rp1375
g275
(g19
S'\xba\xea\x07|@\x0e\xab\xbe'
p1376
tp1377
Rp1378
tp1379
sbsbag3
(g305
g5
(lp1380
F0.7577832300031248
aF0.27677973553763513
aF0.888766088923776
aF0.5117937977784469
aF0.25299777876283247
aF0.015252664603247035
aF0.8899607948864499
aF0.026899649437177042
aF0.21031422245432407
aF0.39492015873945896
aF0.4572542894590069
aF0.5092575470001449
atp1381
Rp1382
(dp1383
g237
g3
(g270
g264
Ntp1384
Rp1385
(dp1386
g274
(g275
(g19
S'\xb5\x81\xef\xf1\xea\xf4\xb9?'
p1387
tp1388
Rp1389
g275
(g19
S'\x9e\x1a\xa2\xf5O\xb7\x95\xbe'
p1390
tp1391
Rp1392
tp1393
sbsbag3
(g305
g5
(lp1394
F0.6566902005004377
aF0.8172955795583132
aF0.18065043497902422
aF0.9876922796318541
aF0.456191708726599
aF0.8740639494286794
aF0.9250348120924127
aF0.42500530323671726
aF0.5013246049302001
aF0.22521661106889734
aF0.1505970518392259
aF0.7275104755351445
atp1395
Rp1396
(dp1397
g237
g3
(g270
g264
Ntp1398
Rp1399
(dp1400
g274
(g275
(g19
S'\x9d\xfe\xf8\xbd\xef\x1b\xbe?'
p1401
tp1402
Rp1403
g275
(g19
S'^\xca\xbb\x1ch\xd6\xa1\xbe'
p1404
tp1405
Rp1406
tp1407
sbsbag3
(g305
g5
(lp1408
F0.307093015710144
aF0.8705001901622983
aF0.4196431192789558
aF0.040776422067671625
aF0.6984842990896655
aF0.45532600949635005
aF0.11102565026642963
aF0.8163155639804673
aF0.27874191540916826
aF0.8656966938448629
aF0.9205130077428044
aF0.4374048336937002
atp1409
Rp1410
(dp1411
g237
g3
(g270
g264
Ntp1412
Rp1413
(dp1414
g274
(g275
(g19
S'\x8a\r\xe1\xaaE\xcd\xc8?'
p1415
tp1416
Rp1417
g275
(g19
S'4R\x93\xed\x81J\x9d\xbe'
p1418
tp1419
Rp1420
tp1421
sbsbag3
(g305
g5
(lp1422
F0.004706609233812498
aF0.6349407387488983
aF0.8678832631188254
aF0.8352434756151811
aF0.934177628065737
aF0.8380817843202958
aF0.29065798893516626
aF0.8250928450896269
aF0.15750192201941826
aF0.9074567627380882
aF0.7930632696150102
aF0.03706209651726655
atp1423
Rp1424
(dp1425
g237
g3
(g270
g264
Ntp1426
Rp1427
(dp1428
g274
(g275
(g19
S';b\xbf\xe1\x8b\xf0\xcf?'
p1429
tp1430
Rp1431
g275
(g19
S'\xa4{\xf0\xd5\xe60p\xbe'
p1432
tp1433
Rp1434
tp1435
sbsbag3
(g305
g5
(lp1436
F0.5298740416929066
aF0.7827905623130756
aF0.3340215129894586
aF0.8751212122094675
aF0.23916030794444998
aF0.19661748611451235
aF0.21212063167617046
aF0.09457847248445772
aF0.9608258367741186
aF0.6904452660624628
aF0.021993367242695183
aF0.07955999758064292
atp1437
Rp1438
(dp1439
g237
g3
(g270
g264
Ntp1440
Rp1441
(dp1442
g274
(g275
(g19
S'\x96\x8fFs\xa8\xa6\xca?'
p1443
tp1444
Rp1445
g275
(g19
S'\x82\xa31\xbb\x94\x90\xb8\xbe'
p1446
tp1447
Rp1448
tp1449
sbsbag3
(g305
g5
(lp1450
F0.6503034606550839
aF0.06400329765614443
aF0.6631846330451692
aF0.8658802523724498
aF0.9353743070165944
aF0.43734914046125306
aF0.17133186571212655
aF0.5641848147242043
aF0.7642340490666419
aF0.7509726809505161
aF0.8014658215153823
aF0.005128068131182717
atp1451
Rp1452
(dp1453
g237
g3
(g270
g264
Ntp1454
Rp1455
(dp1456
g274
(g275
(g19
S'@\xb5\x18%\x15\xac\xcf?'
p1457
tp1458
Rp1459
g275
(g19
S'2\x04Kz}2\x82\xbe'
p1460
tp1461
Rp1462
tp1463
sbsbag3
(g305
g5
(lp1464
F0.48029386537649044
aF0.7184809922558609
aF0.7624840512988014
aF0.43902067637611863
aF0.7048770061305142
aF0.70648113895628
aF0.22508032775141096
aF0.5494421543632604
aF0.0833955189646226
aF0.895177195532474
aF0.43653483850650987
aF0.005128068131182717
atp1465
Rp1466
(dp1467
g237
g3
(g270
g264
Ntp1468
Rp1469
(dp1470
g274
(g275
(g19
S'\x8d\xa3\x87b\x90z\xcf?'
p1471
tp1472
Rp1473
g275
(g19
S'G\xb1bo\xf8H\xa1\xbe'
p1474
tp1475
Rp1476
tp1477
sbsbag3
(g305
g5
(lp1478
F0.9956132889353683
aF0.8707463137655125
aF0.3091822511012724
aF0.6568350503604178
aF0.7519157709799703
aF0.6519340320480721
aF0.3513557645699783
aF0.1449912545600731
aF0.09801920533159758
aF0.03252976955540532
aF0.43653483850650987
aF0.005128068131182717
atp1479
Rp1480
(dp1481
g237
g3
(g270
g264
Ntp1482
Rp1483
(dp1484
g274
(g275
(g19
S'\xa2\xfeN\x81\xdeL\xd3?'
p1485
tp1486
Rp1487
g275
(g19
S'\x01\xcd\x01B\x9b7\xb5\xbe'
p1488
tp1489
Rp1490
tp1491
sbsbag3
(g305
g5
(lp1492
F0.8231416407079836
aF0.5000992485908555
aF0.9105633796352218
aF0.40791241096175945
aF0.1467546575418609
aF0.7119517100582449
aF0.6703000164680363
aF0.25929127507948424
aF0.030837757940330834
aF0.8970266337490772
aF0.4793264545833186
aF0.20324660301463804
atp1493
Rp1494
(dp1495
g237
g3
(g270
g264
Ntp1496
Rp1497
(dp1498
g274
(g275
(g19
S'\xe5\xd5/\x8b\xa6\x82\xca?'
p1499
tp1500
Rp1501
g275
(g19
S'\xd2\xce\x98\xf5\xc6\r\xb7\xbe'
p1502
tp1503
Rp1504
tp1505
sbsbag3
(g305
g5
(lp1506
F0.07518574309624959
aF0.22983562845322514
aF0.027063863645387487
aF0.8658802523724498
aF0.9353743070165944
aF0.6519340320480721
aF0.3513557645699783
aF0.5641848147242043
aF0.7642340490666419
aF0.7509726809505161
aF0.8014658215153823
aF0.005128068131182717
atp1507
Rp1508
(dp1509
g237
g3
(g270
g264
Ntp1510
Rp1511
(dp1512
g274
(g275
(g19
S'\xdbE\xc6\xaf\x10\xe5\xcf?'
p1513
tp1514
Rp1515
g275
(g19
S'Y\xf8\x11\x96\xdd\x19n\xbe'
p1516
tp1517
Rp1518
tp1519
sbsbag3
(g305
g5
(lp1520
F0.07518574309624959
aF0.22983562845322514
aF0.027063863645387487
aF0.8658802523724498
aF0.9353743070165944
aF0.43734914046125306
aF0.17133186571212655
aF0.5494421543632604
aF0.0833955189646226
aF0.895177195532474
aF0.1709077174683521
aF0.005128068131182717
atp1521
Rp1522
(dp1523
g237
g3
(g270
g264
Ntp1524
Rp1525
(dp1526
g274
(g275
(g19
S'p\xf1Y\x19\x94\xd8\xcf?'
p1527
tp1528
Rp1529
g275
(g19
S'l\xf4{6\xd9\xc8r\xbe'
p1530
tp1531
Rp1532
tp1533
sbsbag3
(g305
g5
(lp1534
F0.07518574309624959
aF0.22983562845322514
aF0.027063863645387487
aF0.8658802523724498
aF0.9353743070165944
aF0.43734914046125306
aF0.17133186571212655
aF0.5494421543632604
aF0.0833955189646226
aF0.895177195532474
aF0.43653483850650987
aF0.005128068131182717
atp1535
Rp1536
(dp1537
g237
g3
(g270
g264
Ntp1538
Rp1539
(dp1540
g274
(g275
(g19
S':x\xab\xc2\xc5\xdb\xcf?'
p1541
tp1542
Rp1543
g275
(g19
S'\xb1j\x12\x9b\x04\x17n\xbe'
p1544
tp1545
Rp1546
tp1547
sbsbag3
(g305
g5
(lp1548
F0.6503034606550839
aF0.06400329765614443
aF0.6631846330451692
aF0.8658802523724498
aF0.9353743070165944
aF0.43734914046125306
aF0.17133186571212655
aF0.1449912545600731
aF0.09801920533159758
aF0.19088782108263058
aF0.726723812723088
aF0.005128068131182717
atp1549
Rp1550
(dp1551
g237
g3
(g270
g264
Ntp1552
Rp1553
(dp1554
g274
(g275
(g19
S'[\xad\x1at\xf3\x85\xd4?'
p1555
tp1556
Rp1557
g275
(g19
S'w\x85\xf9~e\xec\xb1\xbe'
p1558
tp1559
Rp1560
tp1561
sbsbag3
(g305
g5
(lp1562
F0.6892285712260524
aF0.314209638791881
aF0.6933154141104735
aF0.3557532476355777
aF0.7499934016124535
aF0.8101593156725713
aF0.6813438309443418
aF0.9482895311711789
aF0.4732939583243795
aF0.1348332334029172
aF0.5400460054585166
aF0.5154362034414773
atp1563
Rp1564
(dp1565
g237
g3
(g270
g264
Ntp1566
Rp1567
(dp1568
g274
(g275
(g19
S'Z\xef\xf2 5\xdf\xc8?'
p1569
tp1570
Rp1571
g275
(g19
S'qe\x7fdo0\xa5\xbe'
p1572
tp1573
Rp1574
tp1575
sbsbag3
(g305
g5
(lp1576
F0.9493829222436548
aF0.1701697272291519
aF0.41892499722839627
aF0.5130419715178739
aF0.28477643569785105
aF0.35106665481615396
aF0.8409094748956807
aF0.2307763497258274
aF0.25556239494550825
aF0.3077615633189844
aF0.739722593407692
aF0.9224849822191857
atp1577
Rp1578
(dp1579
g237
g3
(g270
g264
Ntp1580
Rp1581
(dp1582
g274
(g275
(g19
S'\xae"})\x0f\xd4\xa7?'
p1583
tp1584
Rp1585
g275
(g19
S'\xdb\xca\x1a\xc7\x93\xc6\x80\xbe'
p1586
tp1587
Rp1588
tp1589
sbsbag3
(g305
g5
(lp1590
F0.38311380292332675
aF0.520266720550662
aF0.52574400587287
aF0.8153579461817979
aF0.03720063747386504
aF0.3582029661137117
aF0.5824910369768046
aF0.820767668501942
aF0.6200618501815107
aF0.17960679425202386
aF0.6313579962735238
aF0.6319780941275233
atp1591
Rp1592
(dp1593
g237
g3
(g270
g264
Ntp1594
Rp1595
(dp1596
g274
(g275
(g19
S'\x89\x95\x0fM\xb2\x10\xc0?'
p1597
tp1598
Rp1599
g275
(g19
S'1\xa9\xde\xecJ\xb8\x99\xbe'
p1600
tp1601
Rp1602
tp1603
sbsbag3
(g305
g5
(lp1604
F0.5467758573302699
aF0.10516336884704602
aF0.957412979759829
aF0.49044273745790756
aF0.5289560912874125
aF0.4159333382766739
aF0.41293528243878586
aF0.38953135720547005
aF0.5599609926281174
aF0.9013861555448437
aF0.9958063086178154
aF0.4157146755014728
atp1605
Rp1606
(dp1607
g237
g3
(g270
g264
Ntp1608
Rp1609
(dp1610
g274
(g275
(g19
S'\x90T+\x1bd\x14\xc9?'
p1611
tp1612
Rp1613
g275
(g19
S'\xe9[\xf1\x13\x8bS\x9e\xbe'
p1614
tp1615
Rp1616
tp1617
sbsbag3
(g305
g5
(lp1618
F0.13568562843513154
aF0.115816666278039
aF0.06554351634162425
aF0.9367399611856033
aF0.9687569898635362
aF0.07274219937769122
aF0.07984749165681038
aF0.39142688043345564
aF0.30726512847024556
aF0.985807206701097
aF0.13820512288954656
aF0.8328965082903084
atp1619
Rp1620
(dp1621
g237
g3
(g270
g264
Ntp1622
Rp1623
(dp1624
g274
(g275
(g19
S'A\xa8"\x9f\xc3\xdf\xa4?'
p1625
tp1626
Rp1627
g275
(g19
S'O\x8c\x84\x80\x14\x83}\xbe'
p1628
tp1629
Rp1630
tp1631
sbsbag3
(g305
g5
(lp1632
F0.41191151893317235
aF0.32873967987609054
aF0.4147431088293869
aF0.20717133439894253
aF0.8774049640615856
aF0.5349568834140875
aF0.13693646064215037
aF0.5650289827960513
aF0.02778267195575168
aF0.013081934129513417
aF0.6974483043866289
aF0.4472692180359972
atp1633
Rp1634
(dp1635
g237
g3
(g270
g264
Ntp1636
Rp1637
(dp1638
g274
(g275
(g19
S'\x1e\xf3\xaf\x15\xa2\x8b\xca?'
p1639
tp1640
Rp1641
g275
(g19
S'\xc6\x08\xa8%2\x91\xa4\xbe'
p1642
tp1643
Rp1644
tp1645
sbsbag3
(g305
g5
(lp1646
F0.07518574309624959
aF0.22983562845322514
aF0.027063863645387487
aF0.8658802523724498
aF0.9353743070165944
aF0.6519340320480721
aF0.3513557645699783
aF0.5641848147242043
aF0.7642340490666419
aF0.7509726809505161
aF0.8014658215153823
aF0.005128068131182717
atp1647
Rp1648
(dp1649
g237
g3
(g270
g264
Ntp1650
Rp1651
(dp1652
g274
(g275
(g19
S'\xdbE\xc6\xaf\x10\xe5\xcf?'
p1653
tp1654
Rp1655
g275
(g19
S'Y\xf8\x11\x96\xdd\x19n\xbe'
p1656
tp1657
Rp1658
tp1659
sbsbag3
(g305
g5
(lp1660
F0.07518574309624959
aF0.22983562845322514
aF0.027063863645387487
aF0.8658802523724498
aF0.9353743070165944
aF0.43734914046125306
aF0.17133186571212655
aF0.5641848147242043
aF0.7642340490666419
aF0.7509726809505161
aF0.8014658215153823
aF0.005128068131182717
atp1661
Rp1662
(dp1663
g237
g3
(g270
g264
Ntp1664
Rp1665
(dp1666
g274
(g275
(g19
S'\x9d2\xe1\xcd\x0b\xae\xcf?'
p1667
tp1668
Rp1669
g275
(g19
S'\xe6\xf0\x80\x14\x9e\xb1|\xbe'
p1670
tp1671
Rp1672
tp1673
sbsbag3
(g305
g5
(lp1674
F0.6503034606550839
aF0.06400329765614443
aF0.6631846330451692
aF0.8781286352036521
aF0.24704393480343678
aF0.43734914046125306
aF0.17133186571212655
aF0.1449912545600731
aF0.09801920533159758
aF0.19088782108263058
aF0.726723812723088
aF0.005128068131182717
atp1675
Rp1676
(dp1677
g237
g3
(g270
g264
Ntp1678
Rp1679
(dp1680
g274
(g275
(g19
S'`\xc7Wlil\xd4?'
p1681
tp1682
Rp1683
g275
(g19
S'D\xc0\xb8\x90^\x1a\xa6\xbe'
p1684
tp1685
Rp1686
tp1687
sbsbag3
(g305
g5
(lp1688
F0.06038704188154087
aF0.6357358068207214
aF0.15833665739579383
aF0.4125215969933831
aF0.6777185594601997
aF0.8212986574414007
aF0.30160590841917534
aF0.8716398696306215
aF0.16289393257096807
aF0.7786502755045221
aF0.008755178835852861
aF0.08241783614335862
atp1689
Rp1690
(dp1691
g237
g3
(g270
g264
Ntp1692
Rp1693
(dp1694
g274
(g275
(g19
S'\xee\xc3\xf8\xf2\xa9\x83\xcf?'
p1695
tp1696
Rp1697
g275
(g19
S'd\xd0g\t\xb3E\x96\xbe'
p1698
tp1699
Rp1700
tp1701
sbsbag3
(g305
g5
(lp1702
F0.6503034606550839
aF0.06400329765614443
aF0.6631846330451692
aF0.8658802523724498
aF0.583028332919403
aF0.43734914046125306
aF0.17133186571212655
aF0.5641848147242043
aF0.6507071031511097
aF0.7509726809505161
aF0.8014658215153823
aF0.005128068131182717
atp1703
Rp1704
(dp1705
g237
g3
(g270
g264
Ntp1706
Rp1707
(dp1708
g274
(g275
(g19
S'\xcd\xe6\x0b>\xb7\xab\xcf?'
p1709
tp1710
Rp1711
g275
(g19
S'!\xcbVP\xb1Y\x81\xbe'
p1712
tp1713
Rp1714
tp1715
sbsbag3
(g305
g5
(lp1716
F0.48029386537649044
aF0.7184809922558609
aF0.7624840512988014
aF0.43902067637611863
aF0.7519157709799703
aF0.6519340320480721
aF0.3513557645699783
aF0.1449912545600731
aF0.09801920533159758
aF0.19088782108263058
aF0.6328739230888593
aF0.29068397574303095
atp1717
Rp1718
(dp1719
g237
g3
(g270
g264
Ntp1720
Rp1721
(dp1722
g274
(g275
(g19
S'\xaa\x15\xbc\x1flj\xd1?'
p1723
tp1724
Rp1725
g275
(g19
S'\x0b\xdbm\x94\x16\x86\xaf\xbe'
p1726
tp1727
Rp1728
tp1729
sbsbag3
(g305
g5
(lp1730
F0.7287397170359219
aF0.48593364372970926
aF0.08890910348087855
aF0.2238719342750165
aF0.9808444178627154
aF0.44879489008026885
aF0.6143608379814814
aF0.9141542532326277
aF0.9476002752645083
aF0.857298971074372
aF0.726723812723088
aF0.18313762351994634
atp1731
Rp1732
(dp1733
g237
g3
(g270
g264
Ntp1734
Rp1735
(dp1736
g274
(g275
(g19
S']\xd4H\xab\xd0Q\xc9?'
p1737
tp1738
Rp1739
g275
(g19
S'\x16(D\x99\x01x\xad\xbe'
p1740
tp1741
Rp1742
tp1743
sbsbag3
(g305
g5
(lp1744
F0.6503034606550839
aF0.06400329765614443
aF0.6631846330451692
aF0.8781286352036521
aF0.24704393480343678
aF0.43734914046125306
aF0.17133186571212655
aF0.5641848147242043
aF0.7642340490666419
aF0.7509726809505161
aF0.8014658215153823
aF0.005128068131182717
atp1745
Rp1746
(dp1747
g237
g3
(g270
g264
Ntp1748
Rp1749
(dp1750
g274
(g275
(g19
S'n<\xad\x89X\xb0\xcf?'
p1751
tp1752
Rp1753
g275
(g19
S"Q\xc2[\xa9\xd1'\x81\xbe"
p1754
tp1755
Rp1756
tp1757
sbsbag3
(g305
g5
(lp1758
F0.6503034606550839
aF0.06400329765614443
aF0.6631846330451692
aF0.8658802523724498
aF0.9353743070165944
aF0.43734914046125306
aF0.17133186571212655
aF0.1449912545600731
aF0.09801920533159758
aF0.19088782108263058
aF0.726723812723088
aF0.005128068131182717
atp1759
Rp1760
(dp1761
g237
g3
(g270
g264
Ntp1762
Rp1763
(dp1764
g274
(g275
(g19
S'[\xad\x1at\xf3\x85\xd4?'
p1765
tp1766
Rp1767
g275
(g19
S'x\x85\xf9~e\xec\xb1\xbe'
p1768
tp1769
Rp1770
tp1771
sbsbag3
(g305
g5
(lp1772
F0.18643755352525349
aF0.49287139176508554
aF0.0271656110170988
aF0.9814855943639617
aF0.980985115792825
aF0.6684916925988751
aF0.1198752955886605
aF0.8533901997457848
aF0.5923380963088759
aF0.5870657684461549
aF0.8941096244730815
aF0.4909270914468108
atp1773
Rp1774
(dp1775
g237
g3
(g270
g264
Ntp1776
Rp1777
(dp1778
g274
(g275
(g19
S'R\xea\x9a\x11\xe8\x8a\xca?'
p1779
tp1780
Rp1781
g275
(g19
S'\xb0\x84O\xd4\xcb\xcc\xa1\xbe'
p1782
tp1783
Rp1784
tp1785
sbsbag3
(g305
g5
(lp1786
F0.28249997301821617
aF0.8266284028212384
aF0.5745293445986654
aF0.9737810202728681
aF0.44208340105398125
aF0.8155936739367086
aF0.8375378533506787
aF0.2687715006716813
aF0.200965872415114
aF0.16413422313111148
aF0.8570276812987662
aF0.6447718994529711
atp1787
Rp1788
(dp1789
g237
g3
(g270
g264
Ntp1790
Rp1791
(dp1792
g274
(g275
(g19
S' \x80\xcbRc\x94\xc4?'
p1793
tp1794
Rp1795
g275
(g19
S'\xa2}J2\xday\xa7\xbe'
p1796
tp1797
Rp1798
tp1799
sbsbag3
(g305
g5
(lp1800
F0.33637082822452835
aF0.03599561506461035
aF0.303761407489049
aF0.9073674388760999
aF0.7656986130011074
aF0.09509779201667268
aF0.22571384344148127
aF0.9414013241385799
aF0.6664186479472961
aF0.6082612409347034
aF0.8194435341345964
aF0.22411357986488156
atp1801
Rp1802
(dp1803
g237
g3
(g270
g264
Ntp1804
Rp1805
(dp1806
g274
(g275
(g19
S'\xeb\x18l~\x7f\x93\xc9?'
p1807
tp1808
Rp1809
g275
(g19
S'\xb6%\xad\xff<!\xa4\xbe'
p1810
tp1811
Rp1812
tp1813
sbsbag3
(g305
g5
(lp1814
F0.4870089249714904
aF0.32720008463585437
aF0.4431426335064529
aF0.8468397790600312
aF0.9855043791382102
aF0.9788377490892729
aF0.8562375238027128
aF0.2019087799886744
aF0.9024138473313901
aF0.8868791956650812
aF0.12833821024607595
aF0.21950093489973488
atp1815
Rp1816
(dp1817
g237
g3
(g270
g264
Ntp1818
Rp1819
(dp1820
g274
(g275
(g19
S'\xba!N\x860@\xca?'
p1821
tp1822
Rp1823
g275
(g19
S'\x19\xfa\x83sn\xb7\xb9\xbe'
p1824
tp1825
Rp1826
tp1827
sbsbag3
(g305
g5
(lp1828
F0.8697221526832233
aF0.17678495656492976
aF0.7283704946224895
aF0.9026753829971975
aF0.4049540249295508
aF0.16869338559534586
aF0.6897352569534134
aF0.33038779957313225
aF0.07145379544597119
aF0.25594768409934676
aF0.06412958043010308
aF0.7971214010912643
atp1829
Rp1830
(dp1831
g237
g3
(g270
g264
Ntp1832
Rp1833
(dp1834
g274
(g275
(g19
S'\xd0\xec\x19g \xe1\xad?'
p1835
tp1836
Rp1837
g275
(g19
S'\x1aM\xc9\x948k\x86\xbe'
p1838
tp1839
Rp1840
tp1841
sbsbag3
(g305
g5
(lp1842
F0.6898851741197582
aF0.6491756011469795
aF0.09940643095586399
aF0.9935149690950844
aF0.7838797455052847
aF0.26817594828081537
aF0.18255780619165685
aF0.21948216125027442
aF0.601026837245164
aF0.36011115669151283
aF0.3406071434382534
aF0.25277425710577395
atp1843
Rp1844
(dp1845
g237
g3
(g270
g264
Ntp1846
Rp1847
(dp1848
g274
(g275
(g19
S'\x90\x1f\xc6\xc5|\x12\xcb?'
p1849
tp1850
Rp1851
g275
(g19
S'\xd8\x1eUF\x88\xaa\xb3\xbe'
p1852
tp1853
Rp1854
tp1855
sbsbag3
(g305
g5
(lp1856
F0.5507587214881686
aF0.2438528193753372
aF0.4054209584236609
aF0.6773233915261144
aF0.13236419514878794
aF0.6529374946748027
aF0.7636872017406409
aF0.6353407400068569
aF0.6446475034199625
aF0.28523041633234125
aF0.1493798197031445
aF0.11018233751341111
atp1857
Rp1858
(dp1859
g237
g3
(g270
g264
Ntp1860
Rp1861
(dp1862
g274
(g275
(g19
S'6\xc0x _\x13\xd1?'
p1863
tp1864
Rp1865
g275
(g19
S'@CE\x83\x9d\x04\xa0\xbe'
p1866
tp1867
Rp1868
tp1869
sbsbag3
(g305
g5
(lp1870
F0.40990731664382507
aF0.16029632333365906
aF0.600325924478227
aF0.0038079409569616862
aF0.6725513236496181
aF0.12731416970604315
aF0.9652734441414093
aF0.765438081006761
aF0.579288275105126
aF0.18901586360019862
aF0.6581692890016636
aF0.2557878670634005
atp1871
Rp1872
(dp1873
g237
g3
(g270
g264
Ntp1874
Rp1875
(dp1876
g274
(g275
(g19
S'\x02\xcc\x1fC\xc6\xf2\xca?'
p1877
tp1878
Rp1879
g275
(g19
S'\x89\x8a\xdfo\xeaC\x9e\xbe'
p1880
tp1881
Rp1882
tp1883
sbsbag3
(g305
g5
(lp1884
F0.07518574309624959
aF0.22983562845322514
aF0.027063863645387487
aF0.8658802523724498
aF0.9353743070165944
aF0.9165715838424872
aF0.3513557645699783
aF0.5486978174568331
aF0.09801920533159758
aF0.19088782108263058
aF0.726723812723088
aF0.18313762351994634
atp1885
Rp1886
(dp1887
g237
g3
(g270
g264
Ntp1888
Rp1889
(dp1890
g274
(g275
(g19
S'$\xddW\xc5J\xa5\xd2?'
p1891
tp1892
Rp1893
g275
(g19
S'\xe6)\xec\x9a%7\xa3\xbe'
p1894
tp1895
Rp1896
tp1897
sbsbag3
(g305
g5
(lp1898
F0.07518574309624959
aF0.06400329765614443
aF0.6631846330451692
aF0.8658802523724498
aF0.583028332919403
aF0.43734914046125306
aF0.17133186571212655
aF0.5641848147242043
aF0.6507071031511097
aF0.7509726809505161
aF0.8014658215153823
aF0.005128068131182717
atp1899
Rp1900
(dp1901
g237
g3
(g270
g264
Ntp1902
Rp1903
(dp1904
g274
(g275
(g19
S'\x02<\x01\x82Q\xc6\xcf?'
p1905
tp1906
Rp1907
g275
(g19
S'\x19\x0f\xbc\xaf\xb1\tz\xbe'
p1908
tp1909
Rp1910
tp1911
sbsbag3
(g305
g5
(lp1912
F0.6503034606550839
aF0.22983562845322514
aF0.027063863645387487
aF0.8658802523724498
aF0.9353743070165944
aF0.43734914046125306
aF0.17133186571212655
aF0.5494421543632604
aF0.0833955189646226
aF0.895177195532474
aF0.43653483850650987
aF0.005128068131182717
atp1913
Rp1914
(dp1915
g237
g3
(g270
g264
Ntp1916
Rp1917
(dp1918
g274
(g275
(g19
S'\xb5\xca\xec\xb8^\xe8\xcf?'
p1919
tp1920
Rp1921
g275
(g19
S'\xf4\xf1\x1a\xe7&$o\xbe'
p1922
tp1923
Rp1924
tp1925
sbsbag3
(g305
g5
(lp1926
F0.6503034606550839
aF0.06400329765614443
aF0.7031151842153793
aF0.8658802523724498
aF0.7027544386927214
aF0.991123287990312
aF0.0795906654085391
aF0.5641848147242043
aF0.7642340490666419
aF0.7509726809505161
aF0.8014658215153823
aF0.005128068131182717
atp1927
Rp1928
(dp1929
g237
g3
(g270
g264
Ntp1930
Rp1931
(dp1932
g274
(g275
(g19
S'\xe0[" \xb4\xb2\xcf?'
p1933
tp1934
Rp1935
g275
(g19
S"\xa6'\xbfV\xcfj\x87\xbe"
p1936
tp1937
Rp1938
tp1939
sbsbag3
(g305
g5
(lp1940
F0.09176054158551095
aF0.9179296206944415
aF0.8608706462158797
aF0.5158727617461076
aF0.9329189147125406
aF0.7445215509217344
aF0.31369067381154614
aF0.9620841362667003
aF0.33620053723119714
aF0.19088782108263058
aF0.726723812723088
aF0.18313762351994634
atp1941
Rp1942
(dp1943
g237
g3
(g270
g264
Ntp1944
Rp1945
(dp1946
g274
(g275
(g19
S'%\xb4?T\nS\xcd?'
p1947
tp1948
Rp1949
g275
(g19
S'<b\xa2\xa2O\xfc\x9b\xbe'
p1950
tp1951
Rp1952
tp1953
sbsbag3
(g305
g5
(lp1954
F0.07518574309624959
aF0.22983562845322514
aF0.6631846330451692
aF0.8658802523724498
aF0.9353743070165944
aF0.43734914046125306
aF0.17133186571212655
aF0.5641848147242043
aF0.7642340490666419
aF0.7509726809505161
aF0.8014658215153823
aF0.005128068131182717
atp1955
Rp1956
(dp1957
g237
g3
(g270
g264
Ntp1958
Rp1959
(dp1960
g274
(g275
(g19
S":w\xc3\xd8'[\xcf?"
p1961
tp1962
Rp1963
g275
(g19
S'\xc0\xef\x05\x85\xe8\xc5\x90\xbe'
p1964
tp1965
Rp1966
tp1967
sbsbag3
(g305
g5
(lp1968
F0.478921076205146
aF0.007781699243823326
aF0.05692041489764621
aF0.7753852326182484
aF0.8935212069814862
aF0.14354431497996456
aF0.639813715271386
aF0.7903807316236557
aF0.30221820381267983
aF0.3840304630691528
aF0.8417663708115082
aF0.19525186346696977
atp1969
Rp1970
(dp1971
g237
g3
(g270
g264
Ntp1972
Rp1973
(dp1974
g274
(g275
(g19
S'z\xffz\xabx\xb1\xcd?'
p1975
tp1976
Rp1977
g275
(g19
S'*\xbb\x94\xe8HT\xa9\xbe'
p1978
tp1979
Rp1980
tp1981
sbsbag3
(g305
g5
(lp1982
F0.2572612677638151
aF0.9871661661501914
aF0.49317829455216855
aF0.5089179914014221
aF0.33511480070455224
aF0.6793107245949757
aF0.955776783524792
aF0.24157775603075038
aF0.1850213512377641
aF0.7416052686093654
aF0.8036918513577379
aF0.1543814560534229
atp1983
Rp1984
(dp1985
g237
g3
(g270
g264
Ntp1986
Rp1987
(dp1988
g274
(g275
(g19
S'\xe1\x04\xc7\xb9\xae\x1a\xc9?'
p1989
tp1990
Rp1991
g275
(g19
S'_\xd0\xd5m\xa4*\xbf\xbe'
p1992
tp1993
Rp1994
tp1995
sbsbag3
(g305
g5
(lp1996
F0.22196790022168345
aF0.09618051818583828
aF0.5156093273042035
aF0.3284178232284819
aF0.5706508122287559
aF0.24221507883743232
aF0.4685743065010626
aF0.8868302595461516
aF0.5612790476431668
aF0.4534251110973484
aF0.9248806982420259
aF0.4724447372815763
atp1997
Rp1998
(dp1999
g237
g3
(g270
g264
Ntp2000
Rp2001
(dp2002
g274
(g275
(g19
S'\xa59\xe8\xfapM\xc3?'
p2003
tp2004
Rp2005
g275
(g19
S'\xe7\xf7\xa0\x9e\xcd\xb5\x97\xbe'
p2006
tp2007
Rp2008
tp2009
sbsbag3
(g305
g5
(lp2010
F0.5624719821515749
aF0.5192983535849247
aF0.7312518308245448
aF0.9494477866341408
aF0.10215407679472033
aF0.7527460444832823
aF0.2372277264980729
aF0.06856534621435961
aF0.12775038068696332
aF0.30646634789841065
aF0.8856880956069351
aF0.3343167917078327
atp2011
Rp2012
(dp2013
g237
g3
(g270
g264
Ntp2014
Rp2015
(dp2016
g274
(g275
(g19
S'\xeb>\x95\\\x00N\xd2?'
p2017
tp2018
Rp2019
g275
(g19
S't\xce\x83\xc8<^\xbb\xbe'
p2020
tp2021
Rp2022
tp2023
sbsbag3
(g305
g5
(lp2024
F0.4704495419235577
aF0.07592962804335113
aF0.7511244058627268
aF0.15107943186503203
aF0.6712607168589824
aF0.8673518803629368
aF0.6043180782348901
aF0.45266808261324587
aF0.8171574036140177
aF0.772606649488283
aF0.22246298039079004
aF0.052593345369288835
atp2025
Rp2026
(dp2027
g237
g3
(g270
g264
Ntp2028
Rp2029
(dp2030
g274
(g275
(g19
S'`4?SI%\xcd?'
p2031
tp2032
Rp2033
g275
(g19
S'/\xbe6\xf7\x87\xc7\xbc\xbe'
p2034
tp2035
Rp2036
tp2037
sbsbag3
(g305
g5
(lp2038
F0.9956132889353683
aF0.8707463137655125
aF0.3091822511012724
aF0.6568350503604178
aF0.7519157709799703
aF0.6519340320480721
aF0.3513557645699783
aF0.1449912545600731
aF0.09801920533159758
aF0.20905550247789995
aF0.5033830806770261
aF0.22562533150148678
atp2039
Rp2040
(dp2041
g237
g3
(g270
g264
Ntp2042
Rp2043
(dp2044
g274
(g275
(g19
S'\xb6)\xef\xae\xf2}\xd4?'
p2045
tp2046
Rp2047
g275
(g19
S'#T|\x08\x8aP\xb7\xbe'
p2048
tp2049
Rp2050
tp2051
sbsbag3
(g305
g5
(lp2052
F0.41162257024191007
aF0.7029000553594623
aF0.46236261564726633
aF0.416589526620484
aF0.44064567133157617
aF0.22102333901798865
aF0.599436713544814
aF0.3353718007658888
aF0.3840254342797812
aF0.8402238499131072
aF0.4463309445500222
aF0.5172118807855567
atp2053
Rp2054
(dp2055
g237
g3
(g270
g264
Ntp2056
Rp2057
(dp2058
g274
(g275
(g19
S'iS\x1e|o\xac\xc0?'
p2059
tp2060
Rp2061
g275
(g19
S'~\x1eUA\x94\xf3\x95\xbe'
p2062
tp2063
Rp2064
tp2065
sbsbag3
(g305
g5
(lp2066
F0.43829937750047765
aF0.7969759837410533
aF0.898266267547907
aF0.046464930923361125
aF0.17477832195145215
aF0.06786796477704826
aF0.09624814533194659
aF0.6312008900900464
aF0.3917100819885464
aF0.6276944277360457
aF0.6105869539194794
aF0.17092183133487615
atp2067
Rp2068
(dp2069
g237
g3
(g270
g264
Ntp2070
Rp2071
(dp2072
g274
(g275
(g19
S'J\xe4k\x08d\x97\xca?'
p2073
tp2074
Rp2075
g275
(g19
S'\x9c\xd5h\xa5\xc3\x04\xac\xbe'
p2076
tp2077
Rp2078
tp2079
sbsbag3
(g305
g5
(lp2080
F0.8873433562213571
aF0.8974647854133457
aF0.20425703525108085
aF0.03581153719187924
aF0.5286119688583001
aF0.0594764130238018
aF0.7178250151959655
aF0.0596340691920928
aF0.36508126427561616
aF0.5314155211904421
aF0.8551357464654157
aF0.6051215590674435
atp2081
Rp2082
(dp2083
g237
g3
(g270
g264
Ntp2084
Rp2085
(dp2086
g274
(g275
(g19
S',\xa4:\xd5c\xbd\xb4?'
p2087
tp2088
Rp2089
g275
(g19
S'\xac\xb6\xc8\xf7W\xe2\x8b\xbe'
p2090
tp2091
Rp2092
tp2093
sbsbag3
(g305
g5
(lp2094
F0.5339641844123065
aF0.003641171403234278
aF0.9788981301035395
aF0.6983029964094271
aF0.5431127413603338
aF0.551327233888096
aF0.9099420875061456
aF0.8673391854298723
aF0.0840524602513052
aF0.6190308376722725
aF0.9451431296907034
aF0.4179311657956417
atp2095
Rp2096
(dp2097
g237
g3
(g270
g264
Ntp2098
Rp2099
(dp2100
g274
(g275
(g19
S'\x02\xc2s\xf7\xf7R\xcb?'
p2101
tp2102
Rp2103
g275
(g19
S'/=\x976}w\xa0\xbe'
p2104
tp2105
Rp2106
tp2107
sbsbag3
(g305
g5
(lp2108
F0.09105618622476397
aF0.6479443288802903
aF0.7810667014880932
aF0.2161092581081243
aF0.334559955529824
aF0.5807627146337255
aF0.5943639751987602
aF0.14293004759991867
aF0.5066636587110439
aF0.5825923895796992
aF0.590188559283451
aF0.19193058200294044
atp2109
Rp2110
(dp2111
g237
g3
(g270
g264
Ntp2112
Rp2113
(dp2114
g274
(g275
(g19
S'\xed\x9a46C<\xcb?'
p2115
tp2116
Rp2117
g275
(g19
S'\xdd\x17\x84n\xe0y\xb1\xbe'
p2118
tp2119
Rp2120
tp2121
sbsbag3
(g305
g5
(lp2122
F0.457126034737798
aF0.935731134727916
aF0.9756472781239974
aF0.4119094412020762
aF0.5458392330225046
aF0.883457826730612
aF0.5001710669363748
aF0.3045913511212285
aF0.7052731557306077
aF0.08489078934251615
aF0.6514261016662215
aF0.024733128855794817
atp2123
Rp2124
(dp2125
g237
g3
(g270
g264
Ntp2126
Rp2127
(dp2128
g274
(g275
(g19
S'n\xc4\xadUo\xe4\xd0?'
p2129
tp2130
Rp2131
g275
(g19
S'\xd8]N\x15\xf9\xc7\xac\xbe'
p2132
tp2133
Rp2134
tp2135
sbsbag3
(g305
g5
(lp2136
F0.7855967248844228
aF0.19123791187594796
aF0.06764986369769144
aF0.6391518722323114
aF0.7507363174309377
aF0.09422282645390911
aF0.9426090656943041
aF0.927491194701871
aF0.3914139532126065
aF0.9205465692695008
aF0.16575387904409833
aF0.4985345482303405
atp2137
Rp2138
(dp2139
g237
g3
(g270
g264
Ntp2140
Rp2141
(dp2142
g274
(g275
(g19
S'\x08MY\x00\xfe\xbc\xbd?'
p2143
tp2144
Rp2145
g275
(g19
S'\xc0;\xda\xe7\xbe^\x94\xbe'
p2146
tp2147
Rp2148
tp2149
sbsbag3
(g305
g5
(lp2150
F0.6503034606550839
aF0.06400329765614443
aF0.05382446492406612
aF0.16857578577716315
aF0.9353743070165944
aF0.43734914046125306
aF0.17133186571212655
aF0.1449912545600731
aF0.1687226557535555
aF0.03252976955540532
aF0.43653483850650987
aF0.005128068131182717
atp2151
Rp2152
(dp2153
g237
g3
(g270
g264
Ntp2154
Rp2155
(dp2156
g274
(g275
(g19
S'\xdcie6Zg\xd1?'
p2157
tp2158
Rp2159
g275
(g19
S'\xaa\xce\x7f\x86}\xae\xb5\xbe'
p2160
tp2161
Rp2162
tp2163
sbsbag3
(g305
g5
(lp2164
F0.9956132889353683
aF0.8707463137655125
aF0.3091822511012724
aF0.6568350503604178
aF0.7519157709799703
aF0.6519340320480721
aF0.3513557645699783
aF0.1449912545600731
aF0.09801920533159758
aF0.19088782108263058
aF0.726723812723088
aF0.005128068131182717
atp2165
Rp2166
(dp2167
g237
g3
(g270
g264
Ntp2168
Rp2169
(dp2170
g274
(g275
(g19
S'\xe1\xf6\xd0\xa6\xb5x\xd2?'
p2171
tp2172
Rp2173
g275
(g19
S'\xd0\xd9\xefv/\xca\xab\xbe'
p2174
tp2175
Rp2176
tp2177
sbsbag3
(g305
g5
(lp2178
F0.4577056152202652
aF0.6000329719800208
aF0.5422088658223184
aF0.05452330616302348
aF0.27765348430528947
aF0.19668324155863826
aF0.5493659798038072
aF0.0493965950668388
aF0.6117528910902672
aF0.7144907009243733
aF0.7895457295588307
aF0.010961869339899288
atp2179
Rp2180
(dp2181
g237
g3
(g270
g264
Ntp2182
Rp2183
(dp2184
g274
(g275
(g19
S'\x8a\xd0\xe5\x0e\x04Z\xce?'
p2185
tp2186
Rp2187
g275
(g19
S'\xcco\xcd\xb7\x12\t\x9b\xbe'
p2188
tp2189
Rp2190
tp2191
sbsbag3
(g305
g5
(lp2192
F0.6503034606550839
aF0.06400329765614443
aF0.6631846330451692
aF0.8658802523724498
aF0.9353743070165944
aF0.43734914046125306
aF0.17133186571212655
aF0.1449912545600731
aF0.09801920533159758
aF0.19088782108263058
aF0.726723812723088
aF0.005128068131182717
atp2193
Rp2194
(dp2195
g237
g3
(g270
g264
Ntp2196
Rp2197
(dp2198
g274
(g275
(g19
S'[\xad\x1at\xf3\x85\xd4?'
p2199
tp2200
Rp2201
g275
(g19
S'w\x85\xf9~e\xec\xb1\xbe'
p2202
tp2203
Rp2204
tp2205
sbsbag3
(g305
g5
(lp2206
F0.07518574309624959
aF0.22983562845322514
aF0.027063863645387487
aF0.8658802523724498
aF0.9353743070165944
aF0.6519340320480721
aF0.3513557645699783
aF0.1449912545600731
aF0.09801920533159758
aF0.19088782108263058
aF0.726723812723088
aF0.005128068131182717
atp2207
Rp2208
(dp2209
g237
g3
(g270
g264
Ntp2210
Rp2211
(dp2212
g274
(g275
(g19
S'!\xc3\xe0^h\xd6\xd3?'
p2213
tp2214
Rp2215
g275
(g19
S'\xcc,\xca\xf6\x94t\xad\xbe'
p2216
tp2217
Rp2218
tp2219
sbsbag3
(g305
g5
(lp2220
F0.6503034606550839
aF0.06400329765614443
aF0.6631846330451692
aF0.8658802523724498
aF0.9353743070165944
aF0.43734914046125306
aF0.17133186571212655
aF0.1449912545600731
aF0.09801920533159758
aF0.19088782108263058
aF0.726723812723088
aF0.18313762351994634
atp2221
Rp2222
(dp2223
g237
g3
(g270
g264
Ntp2224
Rp2225
(dp2226
g274
(g275
(g19
S'3\xe6\x0bg\xc2\x07\xd4?'
p2227
tp2228
Rp2229
g275
(g19
S'\x84\xc4\x92\xf5\xc2\x15\xb2\xbe'
p2230
tp2231
Rp2232
tp2233
sbsbag3
(g305
g5
(lp2234
F0.07518574309624959
aF0.22983562845322514
aF0.027063863645387487
aF0.8658802523724498
aF0.9353743070165944
aF0.43734914046125306
aF0.17133186571212655
aF0.5494421543632604
aF0.0833955189646226
aF0.895177195532474
aF0.43653483850650987
aF0.005128068131182717
atp2235
Rp2236
(dp2237
g237
g3
(g270
g264
Ntp2238
Rp2239
(dp2240
g274
(g275
(g19
S'8x\xab\xc2\xc5\xdb\xcf?'
p2241
tp2242
Rp2243
g275
(g19
S'\xb1j\x12\x9b\x04\x17n\xbe'
p2244
tp2245
Rp2246
tp2247
sbsbag3
(g305
g5
(lp2248
F0.6503034606550839
aF0.06400329765614443
aF0.6631846330451692
aF0.8658802523724498
aF0.9353743070165944
aF0.060446795472100634
aF0.23916338929469994
aF0.12550748015738433
aF0.8091258613037003
aF0.03252976955540532
aF0.726723812723088
aF0.005128068131182717
atp2249
Rp2250
(dp2251
g237
g3
(g270
g264
Ntp2252
Rp2253
(dp2254
g274
(g275
(g19
S'\xa6\xbd\x8fDIn\xd2?'
p2255
tp2256
Rp2257
g275
(g19
S'\xdb\xb9\x14#\xb2\xa7\xa9\xbe'
p2258
tp2259
Rp2260
tp2261
sbsbag3
(g305
g5
(lp2262
F0.07518574309624959
aF0.22983562845322514
aF0.027063863645387487
aF0.8658802523724498
aF0.9353743070165944
aF0.6519340320480721
aF0.3513557645699783
aF0.1449912545600731
aF0.09801920533159758
aF0.19088782108263058
aF0.43653483850650987
aF0.005128068131182717
atp2263
Rp2264
(dp2265
g237
g3
(g270
g264
Ntp2266
Rp2267
(dp2268
g274
(g275
(g19
S'Y\xdd0\x0e|\xed\xd3?'
p2269
tp2270
Rp2271
g275
(g19
S'\x1a\x0e\x18\xb6k\xb4\xab\xbe'
p2272
tp2273
Rp2274
tp2275
sbsbas.